
========================================================================

** ELF Header Information

    File Name: .\obj\rk3399_i2c_SPI_Flash.axf

    Machine class: ELFCLASS32 (32-bit)
    Data encoding: ELFDATA2LSB (Little endian)
    Header version: EV_CURRENT (Current version)
    Operating System ABI: none
    ABI Version: 0
    File Type: ET_EXEC (Executable) (2)
    Machine: EM_ARM (ARM)

    Image Entry point: 0x000000f5
    Flags: EF_ARM_HASENTRY + EF_ARM_ABI_FLOAT_SOFT (0x05000202)

    ARM ELF revision: 5 (ABI version 2)

    Conforms to Soft float procedure-call standard

    Built with
    Component: ARM Compiler 5.06 update 7 (build 960) Tool: armasm [4d35fa]
    Component: ARM Compiler 5.06 update 7 (build 960) Tool: armlink [4d3601]

    Header size: 52 bytes (0x34)
    Program header entry size: 32 bytes (0x20)
    Section header entry size: 40 bytes (0x28)

    Program header entries: 1
    Section header entries: 16

    Program header offset: 182800 (0x0002ca10)
    Section header offset: 182832 (0x0002ca30)

    Section header string table index: 15

========================================================================

** Program header #0 (PT_LOAD) [PF_X + PF_W + PF_R + PF_ARM_ENTRY]
    Size : 5888 bytes (4860 bytes in file)
    Virtual address: 0x00000000 (Alignment 8)


========================================================================

** Section #1 'ER_RO' (SHT_PROGBITS) [SHF_ALLOC + SHF_EXECINSTR]
    Size   : 4816 bytes (alignment 4)
    Address: 0x00000000

    $d.realdata
    RESET
    __Vectors
        0x00000000:    20000430    0..     DCD    536871984
        0x00000004:    000000f5    ....    DCD    245
        0x00000008:    0000011b    ....    DCD    283
        0x0000000c:    000000d9    ....    DCD    217
        0x00000010:    00000000    ....    DCD    0
        0x00000014:    00000000    ....    DCD    0
        0x00000018:    00000000    ....    DCD    0
        0x0000001c:    00000000    ....    DCD    0
        0x00000020:    00000000    ....    DCD    0
        0x00000024:    00000000    ....    DCD    0
        0x00000028:    00000000    ....    DCD    0
        0x0000002c:    0000011f    ....    DCD    287
        0x00000030:    00000000    ....    DCD    0
        0x00000034:    00000000    ....    DCD    0
        0x00000038:    00000121    !...    DCD    289
        0x0000003c:    00000123    #...    DCD    291
        0x00000040:    00000125    %...    DCD    293
        0x00000044:    00000125    %...    DCD    293
        0x00000048:    00000125    %...    DCD    293
        0x0000004c:    00000125    %...    DCD    293
        0x00000050:    00000125    %...    DCD    293
        0x00000054:    00000125    %...    DCD    293
        0x00000058:    00000125    %...    DCD    293
        0x0000005c:    00000125    %...    DCD    293
        0x00000060:    00000125    %...    DCD    293
        0x00000064:    00000125    %...    DCD    293
        0x00000068:    00000125    %...    DCD    293
        0x0000006c:    00000125    %...    DCD    293
        0x00000070:    00000125    %...    DCD    293
        0x00000074:    00000125    %...    DCD    293
        0x00000078:    00000125    %...    DCD    293
        0x0000007c:    00000125    %...    DCD    293
        0x00000080:    00000125    %...    DCD    293
        0x00000084:    00000125    %...    DCD    293
        0x00000088:    00000529    )...    DCD    1321
        0x0000008c:    00000125    %...    DCD    293
        0x00000090:    00000125    %...    DCD    293
        0x00000094:    00000125    %...    DCD    293
        0x00000098:    00000125    %...    DCD    293
        0x0000009c:    00000125    %...    DCD    293
        0x000000a0:    00000125    %...    DCD    293
        0x000000a4:    00000125    %...    DCD    293
        0x000000a8:    00000125    %...    DCD    293
        0x000000ac:    00000125    %...    DCD    293
        0x000000b0:    00000125    %...    DCD    293
        0x000000b4:    00000125    %...    DCD    293
        0x000000b8:    00000125    %...    DCD    293
        0x000000bc:    00000125    %...    DCD    293
    $t
    .ARM.Collect$$$$00000000
    .ARM.Collect$$$$00000001
    __main
    _main_stk
        0x000000c0:    4804        .H      LDR      r0,__lit__00000000 ; [0xd4] = 0x20000430
        0x000000c2:    4685        .F      MOV      sp,r0
    .ARM.Collect$$$$00000004
    _main_scatterload
        0x000000c4:    f000f89c    ....    BL       __scatterload ; 0x200
    .ARM.Collect$$$$00000008
    .ARM.Collect$$$$0000000A
    .ARM.Collect$$$$0000000B
    __main_after_scatterload
    _main_clock
    _main_cpp_init
    _main_init
        0x000000c8:    4800        .H      LDR      r0,[pc,#0] ; [0xcc] = 0x10cd
        0x000000ca:    4700        .G      BX       r0
    $d
        0x000000cc:    000010cd    ....    DCD    4301
    $t
    .ARM.Collect$$$$0000000E
    __rt_lib_shutdown_fini
        0x000000d0:    46c0        .F      MOV      r8,r8
        0x000000d2:    46c0        .F      MOV      r8,r8
    $d
    .ARM.Collect$$$$00002712
    __lit__00000000
    .ARM.Collect$$$$0000000F
    .ARM.Collect$$$$00000011
    __rt_final_cpp
    __rt_final_exit
        0x000000d4:    20000430    0..     DCD    536871984
    $t
    .emb_text
    HardFault_Handler
        0x000000d8:    2004        .       MOVS     r0,#4
        0x000000da:    4671        qF      MOV      r1,lr
        0x000000dc:    4208        .B      TST      r0,r1
        0x000000de:    d002        ..      BEQ      0xe6 ; HardFault_Handler + 14
        0x000000e0:    f3ef8009    ....    MRS      r0,PSP
        0x000000e4:    e001        ..      B        0xea ; HardFault_Handler + 18
        0x000000e6:    f3ef8008    ....    MRS      r0,MSP
        0x000000ea:    4671        qF      MOV      r1,lr
        0x000000ec:    4a00        .J      LDR      r2,[pc,#0] ; [0xf0] = 0x501
        0x000000ee:    4710        .G      BX       r2
    $d
        0x000000f0:    00000501    ....    DCD    1281
    $t
    .text
    Reset_Handler
        0x000000f4:    480c        .H      LDR      r0,[pc,#48] ; [0x128] = 0x40000100
        0x000000f6:    490d        .I      LDR      r1,[pc,#52] ; [0x12c] = 0x59
        0x000000f8:    6001        .`      STR      r1,[r0,#0]
        0x000000fa:    490d        .I      LDR      r1,[pc,#52] ; [0x130] = 0x16
        0x000000fc:    6001        .`      STR      r1,[r0,#0]
        0x000000fe:    490d        .I      LDR      r1,[pc,#52] ; [0x134] = 0x88
        0x00000100:    6001        .`      STR      r1,[r0,#0]
        0x00000102:    4a0d        .J      LDR      r2,[pc,#52] ; [0x138] = 0x40000024
        0x00000104:    490d        .I      LDR      r1,[pc,#52] ; [0x13c] = 0x5aa5
        0x00000106:    6011        .`      STR      r1,[r2,#0]
        0x00000108:    4a0d        .J      LDR      r2,[pc,#52] ; [0x140] = 0x40000280
        0x0000010a:    490e        .I      LDR      r1,[pc,#56] ; [0x144] = 0x1
        0x0000010c:    6011        .`      STR      r1,[r2,#0]
        0x0000010e:    2100        .!      MOVS     r1,#0
        0x00000110:    6001        .`      STR      r1,[r0,#0]
        0x00000112:    480d        .H      LDR      r0,[pc,#52] ; [0x148] = 0xc65
        0x00000114:    4780        .G      BLX      r0
        0x00000116:    480d        .H      LDR      r0,[pc,#52] ; [0x14c] = 0xc1
        0x00000118:    4700        .G      BX       r0
    NMI_Handler
        0x0000011a:    e7fe        ..      B        NMI_Handler ; 0x11a
        0x0000011c:    e7fe        ..      B        0x11c ; NMI_Handler + 2
    SVC_Handler
        0x0000011e:    e7fe        ..      B        SVC_Handler ; 0x11e
    PendSV_Handler
        0x00000120:    e7fe        ..      B        PendSV_Handler ; 0x120
    SysTick_Handler
        0x00000122:    e7fe        ..      B        SysTick_Handler ; 0x122
    Default_Handler
    ACMP01_IRQHandler
    ADC_IRQHandler
    BOD_IRQHandler
    CKFAIL_IRQHandler
    EINT024_IRQHandler
    EINT135_IRQHandler
    GPAB_IRQHandler
    GPCDEF_IRQHandler
    I2C1_IRQHandler
    PDMA_IRQHandler
    PWM0_IRQHandler
    PWM1_IRQHandler
    PWRWU_IRQHandler
    SPI0_IRQHandler
    TMR0_IRQHandler
    TMR1_IRQHandler
    TMR2_IRQHandler
    TMR3_IRQHandler
    UART02_IRQHandler
    UART1_IRQHandler
    USBD_IRQHandler
    USCI_IRQHandler
    WDT_IRQHandler
        0x00000124:    e7fe        ..      B        Default_Handler ; 0x124
    $d
        0x00000126:    0000        ..      DCW    0
        0x00000128:    40000100    ...@    DCD    1073742080
        0x0000012c:    00000059    Y...    DCD    89
        0x00000130:    00000016    ....    DCD    22
        0x00000134:    00000088    ....    DCD    136
        0x00000138:    40000024    $..@    DCD    1073741860
        0x0000013c:    00005aa5    .Z..    DCD    23205
        0x00000140:    40000280    ...@    DCD    1073742464
        0x00000144:    00000001    ....    DCD    1
        0x00000148:    00000c65    e...    DCD    3173
        0x0000014c:    000000c1    ....    DCD    193
    $t
    .text
    __aeabi_uidiv
    __aeabi_uidivmod
        0x00000150:    b530        0.      PUSH     {r4,r5,lr}
        0x00000152:    460b        .F      MOV      r3,r1
        0x00000154:    4601        .F      MOV      r1,r0
        0x00000156:    2000        .       MOVS     r0,#0
        0x00000158:    2220         "      MOVS     r2,#0x20
        0x0000015a:    2401        .$      MOVS     r4,#1
        0x0000015c:    e009        ..      B        0x172 ; __aeabi_uidiv + 34
        0x0000015e:    460d        .F      MOV      r5,r1
        0x00000160:    40d5        .@      LSRS     r5,r5,r2
        0x00000162:    429d        .B      CMP      r5,r3
        0x00000164:    d305        ..      BCC      0x172 ; __aeabi_uidiv + 34
        0x00000166:    461d        .F      MOV      r5,r3
        0x00000168:    4095        .@      LSLS     r5,r5,r2
        0x0000016a:    1b49        I.      SUBS     r1,r1,r5
        0x0000016c:    4625        %F      MOV      r5,r4
        0x0000016e:    4095        .@      LSLS     r5,r5,r2
        0x00000170:    1940        @.      ADDS     r0,r0,r5
        0x00000172:    4615        .F      MOV      r5,r2
        0x00000174:    1e52        R.      SUBS     r2,r2,#1
        0x00000176:    2d00        .-      CMP      r5,#0
        0x00000178:    dcf1        ..      BGT      0x15e ; __aeabi_uidiv + 14
        0x0000017a:    bd30        0.      POP      {r4,r5,pc}
    .text
    __aeabi_memcpy
    __aeabi_memcpy4
    __aeabi_memcpy8
        0x0000017c:    4603        .F      MOV      r3,r0
        0x0000017e:    430b        .C      ORRS     r3,r3,r1
        0x00000180:    079b        ..      LSLS     r3,r3,#30
        0x00000182:    d003        ..      BEQ      0x18c ; __aeabi_memcpy + 16
        0x00000184:    e009        ..      B        0x19a ; __aeabi_memcpy + 30
        0x00000186:    c908        ..      LDM      r1!,{r3}
        0x00000188:    1f12        ..      SUBS     r2,r2,#4
        0x0000018a:    c008        ..      STM      r0!,{r3}
        0x0000018c:    2a04        .*      CMP      r2,#4
        0x0000018e:    d2fa        ..      BCS      0x186 ; __aeabi_memcpy + 10
        0x00000190:    e003        ..      B        0x19a ; __aeabi_memcpy + 30
        0x00000192:    780b        .x      LDRB     r3,[r1,#0]
        0x00000194:    7003        .p      STRB     r3,[r0,#0]
        0x00000196:    1c40        @.      ADDS     r0,r0,#1
        0x00000198:    1c49        I.      ADDS     r1,r1,#1
        0x0000019a:    1e52        R.      SUBS     r2,r2,#1
        0x0000019c:    d2f9        ..      BCS      0x192 ; __aeabi_memcpy + 22
        0x0000019e:    4770        pG      BX       lr
    .text
    __aeabi_uldivmod
        0x000001a0:    b5f0        ..      PUSH     {r4-r7,lr}
        0x000001a2:    b41f        ..      PUSH     {r0-r4}
        0x000001a4:    4606        .F      MOV      r6,r0
        0x000001a6:    2000        .       MOVS     r0,#0
        0x000001a8:    b082        ..      SUB      sp,sp,#8
        0x000001aa:    4605        .F      MOV      r5,r0
        0x000001ac:    2440        @$      MOVS     r4,#0x40
        0x000001ae:    9101        ..      STR      r1,[sp,#4]
        0x000001b0:    9000        ..      STR      r0,[sp,#0]
        0x000001b2:    e01b        ..      B        0x1ec ; __aeabi_uldivmod + 76
        0x000001b4:    9901        ..      LDR      r1,[sp,#4]
        0x000001b6:    4622        "F      MOV      r2,r4
        0x000001b8:    460f        .F      MOV      r7,r1
        0x000001ba:    4630        0F      MOV      r0,r6
        0x000001bc:    f000f842    ..B.    BL       __aeabi_llsr ; 0x244
        0x000001c0:    9a04        ..      LDR      r2,[sp,#0x10]
        0x000001c2:    9b05        ..      LDR      r3,[sp,#0x14]
        0x000001c4:    1a80        ..      SUBS     r0,r0,r2
        0x000001c6:    4199        .A      SBCS     r1,r1,r3
        0x000001c8:    d310        ..      BCC      0x1ec ; __aeabi_uldivmod + 76
        0x000001ca:    4610        .F      MOV      r0,r2
        0x000001cc:    4619        .F      MOV      r1,r3
        0x000001ce:    4622        "F      MOV      r2,r4
        0x000001d0:    f000f828    ..(.    BL       __aeabi_llsl ; 0x224
        0x000001d4:    1a36        6.      SUBS     r6,r6,r0
        0x000001d6:    418f        .A      SBCS     r7,r7,r1
        0x000001d8:    9701        ..      STR      r7,[sp,#4]
        0x000001da:    4622        "F      MOV      r2,r4
        0x000001dc:    2001        .       MOVS     r0,#1
        0x000001de:    2100        .!      MOVS     r1,#0
        0x000001e0:    9f00        ..      LDR      r7,[sp,#0]
        0x000001e2:    f000f81f    ....    BL       __aeabi_llsl ; 0x224
        0x000001e6:    1838        8.      ADDS     r0,r7,r0
        0x000001e8:    414d        MA      ADCS     r5,r5,r1
        0x000001ea:    9000        ..      STR      r0,[sp,#0]
        0x000001ec:    4620         F      MOV      r0,r4
        0x000001ee:    1e64        d.      SUBS     r4,r4,#1
        0x000001f0:    2800        .(      CMP      r0,#0
        0x000001f2:    dcdf        ..      BGT      0x1b4 ; __aeabi_uldivmod + 20
        0x000001f4:    9b01        ..      LDR      r3,[sp,#4]
        0x000001f6:    9800        ..      LDR      r0,[sp,#0]
        0x000001f8:    4629        )F      MOV      r1,r5
        0x000001fa:    4632        2F      MOV      r2,r6
        0x000001fc:    b007        ..      ADD      sp,sp,#0x1c
        0x000001fe:    bdf0        ..      POP      {r4-r7,pc}
    .text
    __scatterload
    __scatterload_rt2
        0x00000200:    4c06        .L      LDR      r4,[pc,#24] ; [0x21c] = 0x12b0
        0x00000202:    2501        .%      MOVS     r5,#1
        0x00000204:    4e06        .N      LDR      r6,[pc,#24] ; [0x220] = 0x12d0
        0x00000206:    e005        ..      B        0x214 ; __scatterload + 20
        0x00000208:    68e3        .h      LDR      r3,[r4,#0xc]
        0x0000020a:    cc07        ..      LDM      r4!,{r0-r2}
        0x0000020c:    432b        +C      ORRS     r3,r3,r5
        0x0000020e:    3c0c        .<      SUBS     r4,r4,#0xc
        0x00000210:    4798        .G      BLX      r3
        0x00000212:    3410        .4      ADDS     r4,r4,#0x10
        0x00000214:    42b4        .B      CMP      r4,r6
        0x00000216:    d3f7        ..      BCC      0x208 ; __scatterload + 8
        0x00000218:    f7ffff56    ..V.    BL       __main_after_scatterload ; 0xc8
    $d
        0x0000021c:    000012b0    ....    DCD    4784
        0x00000220:    000012d0    ....    DCD    4816
    $t
    .text
    __aeabi_llsl
    _ll_shift_l
        0x00000224:    b510        ..      PUSH     {r4,lr}
        0x00000226:    2a20         *      CMP      r2,#0x20
        0x00000228:    db04        ..      BLT      0x234 ; __aeabi_llsl + 16
        0x0000022a:    4601        .F      MOV      r1,r0
        0x0000022c:    3a20         :      SUBS     r2,r2,#0x20
        0x0000022e:    4091        .@      LSLS     r1,r1,r2
        0x00000230:    2000        .       MOVS     r0,#0
        0x00000232:    bd10        ..      POP      {r4,pc}
        0x00000234:    4091        .@      LSLS     r1,r1,r2
        0x00000236:    2320         #      MOVS     r3,#0x20
        0x00000238:    1a9c        ..      SUBS     r4,r3,r2
        0x0000023a:    4603        .F      MOV      r3,r0
        0x0000023c:    40e3        .@      LSRS     r3,r3,r4
        0x0000023e:    4319        .C      ORRS     r1,r1,r3
        0x00000240:    4090        .@      LSLS     r0,r0,r2
        0x00000242:    bd10        ..      POP      {r4,pc}
    .text
    __aeabi_llsr
    _ll_ushift_r
        0x00000244:    b510        ..      PUSH     {r4,lr}
        0x00000246:    2a20         *      CMP      r2,#0x20
        0x00000248:    db04        ..      BLT      0x254 ; __aeabi_llsr + 16
        0x0000024a:    4608        .F      MOV      r0,r1
        0x0000024c:    3a20         :      SUBS     r2,r2,#0x20
        0x0000024e:    40d0        .@      LSRS     r0,r0,r2
        0x00000250:    2100        .!      MOVS     r1,#0
        0x00000252:    bd10        ..      POP      {r4,pc}
        0x00000254:    460b        .F      MOV      r3,r1
        0x00000256:    40d3        .@      LSRS     r3,r3,r2
        0x00000258:    40d0        .@      LSRS     r0,r0,r2
        0x0000025a:    2420         $      MOVS     r4,#0x20
        0x0000025c:    1aa2        ..      SUBS     r2,r4,r2
        0x0000025e:    4091        .@      LSLS     r1,r1,r2
        0x00000260:    4308        .C      ORRS     r0,r0,r1
        0x00000262:    4619        .F      MOV      r1,r3
        0x00000264:    bd10        ..      POP      {r4,pc}
        0x00000266:    0000        ..      MOVS     r0,r0
    i.CLK_EnableModuleClock
    CLK_EnableModuleClock
        0x00000268:    b50e        ..      PUSH     {r1-r3,lr}
        0x0000026a:    4909        .I      LDR      r1,[pc,#36] ; [0x290] = 0x1250
        0x0000026c:    c90e        ..      LDM      r1,{r1-r3}
        0x0000026e:    9100        ..      STR      r1,[sp,#0]
        0x00000270:    9201        ..      STR      r2,[sp,#4]
        0x00000272:    0f81        ..      LSRS     r1,r0,#30
        0x00000274:    008a        ..      LSLS     r2,r1,#2
        0x00000276:    9302        ..      STR      r3,[sp,#8]
        0x00000278:    4669        iF      MOV      r1,sp
        0x0000027a:    588a        .X      LDR      r2,[r1,r2]
        0x0000027c:    4905        .I      LDR      r1,[pc,#20] ; [0x294] = 0x40000200
        0x0000027e:    1851        Q.      ADDS     r1,r2,r1
        0x00000280:    684a        Jh      LDR      r2,[r1,#4]
        0x00000282:    06c3        ..      LSLS     r3,r0,#27
        0x00000284:    0edb        ..      LSRS     r3,r3,#27
        0x00000286:    2001        .       MOVS     r0,#1
        0x00000288:    4098        .@      LSLS     r0,r0,r3
        0x0000028a:    4302        .C      ORRS     r2,r2,r0
        0x0000028c:    604a        J`      STR      r2,[r1,#4]
        0x0000028e:    bd0e        ..      POP      {r1-r3,pc}
    $d
        0x00000290:    00001250    P...    DCD    4688
        0x00000294:    40000200    ...@    DCD    1073742336
    $t
    i.CLK_EnableXtalRC
    CLK_EnableXtalRC
        0x00000298:    4902        .I      LDR      r1,[pc,#8] ; [0x2a4] = 0x40000200
        0x0000029a:    680a        .h      LDR      r2,[r1,#0]
        0x0000029c:    4302        .C      ORRS     r2,r2,r0
        0x0000029e:    600a        .`      STR      r2,[r1,#0]
        0x000002a0:    4770        pG      BX       lr
    $d
        0x000002a2:    0000        ..      DCW    0
        0x000002a4:    40000200    ...@    DCD    1073742336
    $t
    i.CLK_GetHCLKFreq
    CLK_GetHCLKFreq
        0x000002a8:    b510        ..      PUSH     {r4,lr}
        0x000002aa:    4c11        .L      LDR      r4,[pc,#68] ; [0x2f0] = 0x40000200
        0x000002ac:    2000        .       MOVS     r0,#0
        0x000002ae:    6921        !i      LDR      r1,[r4,#0x10]
        0x000002b0:    0749        I.      LSLS     r1,r1,#29
        0x000002b2:    0f49        I.      LSRS     r1,r1,#29
        0x000002b4:    d008        ..      BEQ      0x2c8 ; CLK_GetHCLKFreq + 32
        0x000002b6:    2901        .)      CMP      r1,#1
        0x000002b8:    d008        ..      BEQ      0x2cc ; CLK_GetHCLKFreq + 36
        0x000002ba:    2902        .)      CMP      r1,#2
        0x000002bc:    d009        ..      BEQ      0x2d2 ; CLK_GetHCLKFreq + 42
        0x000002be:    2903        .)      CMP      r1,#3
        0x000002c0:    d00a        ..      BEQ      0x2d8 ; CLK_GetHCLKFreq + 48
        0x000002c2:    2907        .)      CMP      r1,#7
        0x000002c4:    d00b        ..      BEQ      0x2de ; CLK_GetHCLKFreq + 54
        0x000002c6:    e00b        ..      B        0x2e0 ; CLK_GetHCLKFreq + 56
        0x000002c8:    480a        .H      LDR      r0,[pc,#40] ; [0x2f4] = 0x1e84800
        0x000002ca:    e009        ..      B        0x2e0 ; CLK_GetHCLKFreq + 56
        0x000002cc:    2001        .       MOVS     r0,#1
        0x000002ce:    03c0        ..      LSLS     r0,r0,#15
        0x000002d0:    e006        ..      B        0x2e0 ; CLK_GetHCLKFreq + 56
        0x000002d2:    f000f85f    .._.    BL       CLK_GetPLLClockFreq ; 0x394
        0x000002d6:    e003        ..      B        0x2e0 ; CLK_GetHCLKFreq + 56
        0x000002d8:    204b        K       MOVS     r0,#0x4b
        0x000002da:    0240        @.      LSLS     r0,r0,#9
        0x000002dc:    e000        ..      B        0x2e0 ; CLK_GetHCLKFreq + 56
        0x000002de:    4806        .H      LDR      r0,[pc,#24] ; [0x2f8] = 0x2dc6c00
        0x000002e0:    6a21        !j      LDR      r1,[r4,#0x20]
        0x000002e2:    0709        ..      LSLS     r1,r1,#28
        0x000002e4:    0f09        ..      LSRS     r1,r1,#28
        0x000002e6:    1c49        I.      ADDS     r1,r1,#1
        0x000002e8:    f7ffff32    ..2.    BL       __aeabi_uidiv ; 0x150
        0x000002ec:    bd10        ..      POP      {r4,pc}
    $d
        0x000002ee:    0000        ..      DCW    0
        0x000002f0:    40000200    ...@    DCD    1073742336
        0x000002f4:    01e84800    .H..    DCD    32000000
        0x000002f8:    02dc6c00    .l..    DCD    48000000
    $t
    i.CLK_GetPCLK0Freq
    CLK_GetPCLK0Freq
        0x000002fc:    b510        ..      PUSH     {r4,lr}
        0x000002fe:    f000fc67    ..g.    BL       SystemCoreClockUpdate ; 0xbd0
        0x00000302:    4804        .H      LDR      r0,[pc,#16] ; [0x314] = 0x40000200
        0x00000304:    6b40        @k      LDR      r0,[r0,#0x34]
        0x00000306:    0741        A.      LSLS     r1,r0,#29
        0x00000308:    4803        .H      LDR      r0,[pc,#12] ; [0x318] = 0x20000000
        0x0000030a:    0f49        I.      LSRS     r1,r1,#29
        0x0000030c:    6800        .h      LDR      r0,[r0,#0]
        0x0000030e:    40c8        .@      LSRS     r0,r0,r1
        0x00000310:    bd10        ..      POP      {r4,pc}
    $d
        0x00000312:    0000        ..      DCW    0
        0x00000314:    40000200    ...@    DCD    1073742336
        0x00000318:    20000000    ...     DCD    536870912
    $t
    i.CLK_GetPCLK1Freq
    CLK_GetPCLK1Freq
        0x0000031c:    b510        ..      PUSH     {r4,lr}
        0x0000031e:    f000fc57    ..W.    BL       SystemCoreClockUpdate ; 0xbd0
        0x00000322:    4804        .H      LDR      r0,[pc,#16] ; [0x334] = 0x40000200
        0x00000324:    6b40        @k      LDR      r0,[r0,#0x34]
        0x00000326:    0640        @.      LSLS     r0,r0,#25
        0x00000328:    0f41        A.      LSRS     r1,r0,#29
        0x0000032a:    4803        .H      LDR      r0,[pc,#12] ; [0x338] = 0x20000000
        0x0000032c:    6800        .h      LDR      r0,[r0,#0]
        0x0000032e:    40c8        .@      LSRS     r0,r0,r1
        0x00000330:    bd10        ..      POP      {r4,pc}
    $d
        0x00000332:    0000        ..      DCW    0
        0x00000334:    40000200    ...@    DCD    1073742336
        0x00000338:    20000000    ...     DCD    536870912
    $t
    i.CLK_GetPLLClockFreq
    CLK_GetPLLClockFreq
        0x0000033c:    b508        ..      PUSH     {r3,lr}
        0x0000033e:    a011        ..      ADR      r0,{pc}+0x46 ; 0x384
        0x00000340:    6800        .h      LDR      r0,[r0,#0]
        0x00000342:    4911        .I      LDR      r1,[pc,#68] ; [0x388] = 0x40000240
        0x00000344:    9000        ..      STR      r0,[sp,#0]
        0x00000346:    6809        .h      LDR      r1,[r1,#0]
        0x00000348:    2000        .       MOVS     r0,#0
        0x0000034a:    2205        ."      MOVS     r2,#5
        0x0000034c:    0412        ..      LSLS     r2,r2,#16
        0x0000034e:    4211        .B      TST      r1,r2
        0x00000350:    d116        ..      BNE      0x380 ; CLK_GetPLLClockFreq + 68
        0x00000352:    0308        ..      LSLS     r0,r1,#12
        0x00000354:    d501        ..      BPL      0x35a ; CLK_GetPLLClockFreq + 30
        0x00000356:    480d        .H      LDR      r0,[pc,#52] ; [0x38c] = 0xb71b00
        0x00000358:    e000        ..      B        0x35c ; CLK_GetPLLClockFreq + 32
        0x0000035a:    480d        .H      LDR      r0,[pc,#52] ; [0x390] = 0x1e84800
        0x0000035c:    038a        ..      LSLS     r2,r1,#14
        0x0000035e:    d40f        ..      BMI      0x380 ; CLK_GetPLLClockFreq + 68
        0x00000360:    040a        ..      LSLS     r2,r1,#16
        0x00000362:    0f92        ..      LSRS     r2,r2,#30
        0x00000364:    466b        kF      MOV      r3,sp
        0x00000366:    5c9b        .\      LDRB     r3,[r3,r2]
        0x00000368:    05ca        ..      LSLS     r2,r1,#23
        0x0000036a:    0489        ..      LSLS     r1,r1,#18
        0x0000036c:    0dd2        ..      LSRS     r2,r2,#23
        0x0000036e:    0ec9        ..      LSRS     r1,r1,#27
        0x00000370:    1c89        ..      ADDS     r1,r1,#2
        0x00000372:    0880        ..      LSRS     r0,r0,#2
        0x00000374:    1c92        ..      ADDS     r2,r2,#2
        0x00000376:    4359        YC      MULS     r1,r3,r1
        0x00000378:    4350        PC      MULS     r0,r2,r0
        0x0000037a:    f7fffee9    ....    BL       __aeabi_uidiv ; 0x150
        0x0000037e:    0080        ..      LSLS     r0,r0,#2
        0x00000380:    bd08        ..      POP      {r3,pc}
    $d
        0x00000382:    0000        ..      DCW    0
        0x00000384:    04020201    ....    DCD    67240449
        0x00000388:    40000240    @..@    DCD    1073742400
        0x0000038c:    00b71b00    ....    DCD    12000000
        0x00000390:    01e84800    .H..    DCD    32000000
    $t
    i.CLK_GetPLLClockFreq
    CLK_GetPLLClockFreq
        0x00000394:    b508        ..      PUSH     {r3,lr}
        0x00000396:    a011        ..      ADR      r0,{pc}+0x46 ; 0x3dc
        0x00000398:    6800        .h      LDR      r0,[r0,#0]
        0x0000039a:    4911        .I      LDR      r1,[pc,#68] ; [0x3e0] = 0x40000240
        0x0000039c:    9000        ..      STR      r0,[sp,#0]
        0x0000039e:    6809        .h      LDR      r1,[r1,#0]
        0x000003a0:    2000        .       MOVS     r0,#0
        0x000003a2:    2205        ."      MOVS     r2,#5
        0x000003a4:    0412        ..      LSLS     r2,r2,#16
        0x000003a6:    4211        .B      TST      r1,r2
        0x000003a8:    d116        ..      BNE      0x3d8 ; CLK_GetPLLClockFreq + 68
        0x000003aa:    0308        ..      LSLS     r0,r1,#12
        0x000003ac:    d501        ..      BPL      0x3b2 ; CLK_GetPLLClockFreq + 30
        0x000003ae:    480d        .H      LDR      r0,[pc,#52] ; [0x3e4] = 0xb71b00
        0x000003b0:    e000        ..      B        0x3b4 ; CLK_GetPLLClockFreq + 32
        0x000003b2:    480d        .H      LDR      r0,[pc,#52] ; [0x3e8] = 0x1e84800
        0x000003b4:    038a        ..      LSLS     r2,r1,#14
        0x000003b6:    d40f        ..      BMI      0x3d8 ; CLK_GetPLLClockFreq + 68
        0x000003b8:    040a        ..      LSLS     r2,r1,#16
        0x000003ba:    0f92        ..      LSRS     r2,r2,#30
        0x000003bc:    466b        kF      MOV      r3,sp
        0x000003be:    5c9b        .\      LDRB     r3,[r3,r2]
        0x000003c0:    05ca        ..      LSLS     r2,r1,#23
        0x000003c2:    0489        ..      LSLS     r1,r1,#18
        0x000003c4:    0dd2        ..      LSRS     r2,r2,#23
        0x000003c6:    0ec9        ..      LSRS     r1,r1,#27
        0x000003c8:    1c89        ..      ADDS     r1,r1,#2
        0x000003ca:    0880        ..      LSRS     r0,r0,#2
        0x000003cc:    1c92        ..      ADDS     r2,r2,#2
        0x000003ce:    4359        YC      MULS     r1,r3,r1
        0x000003d0:    4350        PC      MULS     r0,r2,r0
        0x000003d2:    f7fffebd    ....    BL       __aeabi_uidiv ; 0x150
        0x000003d6:    0080        ..      LSLS     r0,r0,#2
        0x000003d8:    bd08        ..      POP      {r3,pc}
    $d
        0x000003da:    0000        ..      DCW    0
        0x000003dc:    04020201    ....    DCD    67240449
        0x000003e0:    40000240    @..@    DCD    1073742400
        0x000003e4:    00b71b00    ....    DCD    12000000
        0x000003e8:    01e84800    .H..    DCD    32000000
    $t
    i.CLK_SetHCLK
    CLK_SetHCLK
        0x000003ec:    b5f3        ..      PUSH     {r0,r1,r4-r7,lr}
        0x000003ee:    4812        .H      LDR      r0,[pc,#72] ; [0x438] = 0x40000240
        0x000003f0:    b081        ..      SUB      sp,sp,#4
        0x000003f2:    6905        .i      LDR      r5,[r0,#0x10]
        0x000003f4:    460f        .F      MOV      r7,r1
        0x000003f6:    2010        .       MOVS     r0,#0x10
        0x000003f8:    4c0f        .L      LDR      r4,[pc,#60] ; [0x438] = 0x40000240
        0x000003fa:    4005        .@      ANDS     r5,r5,r0
        0x000003fc:    3c40        @<      SUBS     r4,r4,#0x40
        0x000003fe:    6820         h      LDR      r0,[r4,#0]
        0x00000400:    2604        .&      MOVS     r6,#4
        0x00000402:    4330        0C      ORRS     r0,r0,r6
        0x00000404:    6020         `      STR      r0,[r4,#0]
        0x00000406:    2010        .       MOVS     r0,#0x10
        0x00000408:    f000f850    ..P.    BL       CLK_WaitClockReady ; 0x4ac
        0x0000040c:    6920         i      LDR      r0,[r4,#0x10]
        0x0000040e:    2107        .!      MOVS     r1,#7
        0x00000410:    4308        .C      ORRS     r0,r0,r1
        0x00000412:    6120         a      STR      r0,[r4,#0x10]
        0x00000414:    6a20         j      LDR      r0,[r4,#0x20]
        0x00000416:    0900        ..      LSRS     r0,r0,#4
        0x00000418:    0100        ..      LSLS     r0,r0,#4
        0x0000041a:    4338        8C      ORRS     r0,r0,r7
        0x0000041c:    6220         b      STR      r0,[r4,#0x20]
        0x0000041e:    6920         i      LDR      r0,[r4,#0x10]
        0x00000420:    4388        .C      BICS     r0,r0,r1
        0x00000422:    9901        ..      LDR      r1,[sp,#4]
        0x00000424:    4308        .C      ORRS     r0,r0,r1
        0x00000426:    6120         a      STR      r0,[r4,#0x10]
        0x00000428:    f000fbd2    ....    BL       SystemCoreClockUpdate ; 0xbd0
        0x0000042c:    2d00        .-      CMP      r5,#0
        0x0000042e:    d102        ..      BNE      0x436 ; CLK_SetHCLK + 74
        0x00000430:    6820         h      LDR      r0,[r4,#0]
        0x00000432:    43b0        .C      BICS     r0,r0,r6
        0x00000434:    6020         `      STR      r0,[r4,#0]
        0x00000436:    bdfe        ..      POP      {r1-r7,pc}
    $d
        0x00000438:    40000240    @..@    DCD    1073742400
    $t
    i.CLK_SetModuleClock
    CLK_SetModuleClock
        0x0000043c:    b5f0        ..      PUSH     {r4-r7,lr}
        0x0000043e:    4b19        .K      LDR      r3,[pc,#100] ; [0x4a4] = 0x1230
        0x00000440:    b088        ..      SUB      sp,sp,#0x20
        0x00000442:    cbf0        ..      LDM      r3!,{r4-r7}
        0x00000444:    9400        ..      STR      r4,[sp,#0]
        0x00000446:    ac01        ..      ADD      r4,sp,#4
        0x00000448:    c4e0        ..      STM      r4!,{r5-r7}
        0x0000044a:    cb78        x.      LDM      r3,{r3-r6}
        0x0000044c:    af04        ..      ADD      r7,sp,#0x10
        0x0000044e:    c778        x.      STM      r7!,{r3-r6}
        0x00000450:    0a84        ..      LSRS     r4,r0,#10
        0x00000452:    0623        #.      LSLS     r3,r4,#24
        0x00000454:    0e1b        ..      LSRS     r3,r3,#24
        0x00000456:    d00e        ..      BEQ      0x476 ; CLK_SetModuleClock + 58
        0x00000458:    0303        ..      LSLS     r3,r0,#12
        0x0000045a:    0f9b        ..      LSRS     r3,r3,#30
        0x0000045c:    009b        ..      LSLS     r3,r3,#2
        0x0000045e:    ad04        ..      ADD      r5,sp,#0x10
        0x00000460:    58eb        .X      LDR      r3,[r5,r3]
        0x00000462:    4d11        .M      LDR      r5,[pc,#68] ; [0x4a8] = 0x40000220
        0x00000464:    195b        [.      ADDS     r3,r3,r5
        0x00000466:    b2e5        ..      UXTB     r5,r4
        0x00000468:    0584        ..      LSLS     r4,r0,#22
        0x0000046a:    0ee4        ..      LSRS     r4,r4,#27
        0x0000046c:    40a5        .@      LSLS     r5,r5,r4
        0x0000046e:    681c        .h      LDR      r4,[r3,#0]
        0x00000470:    43ac        .C      BICS     r4,r4,r5
        0x00000472:    4314        .C      ORRS     r4,r4,r2
        0x00000474:    601c        .`      STR      r4,[r3,#0]
        0x00000476:    0e42        B.      LSRS     r2,r0,#25
        0x00000478:    0752        R.      LSLS     r2,r2,#29
        0x0000047a:    d010        ..      BEQ      0x49e ; CLK_SetModuleClock + 98
        0x0000047c:    0082        ..      LSLS     r2,r0,#2
        0x0000047e:    0f92        ..      LSRS     r2,r2,#30
        0x00000480:    0092        ..      LSLS     r2,r2,#2
        0x00000482:    466b        kF      MOV      r3,sp
        0x00000484:    589a        .X      LDR      r2,[r3,r2]
        0x00000486:    4b08        .K      LDR      r3,[pc,#32] ; [0x4a8] = 0x40000220
        0x00000488:    3b10        .;      SUBS     r3,r3,#0x10
        0x0000048a:    18d2        ..      ADDS     r2,r2,r3
        0x0000048c:    0103        ..      LSLS     r3,r0,#4
        0x0000048e:    0f5b        [.      LSRS     r3,r3,#29
        0x00000490:    01c0        ..      LSLS     r0,r0,#7
        0x00000492:    0ec0        ..      LSRS     r0,r0,#27
        0x00000494:    4083        .@      LSLS     r3,r3,r0
        0x00000496:    6810        .h      LDR      r0,[r2,#0]
        0x00000498:    4398        .C      BICS     r0,r0,r3
        0x0000049a:    4308        .C      ORRS     r0,r0,r1
        0x0000049c:    6010        .`      STR      r0,[r2,#0]
        0x0000049e:    b008        ..      ADD      sp,sp,#0x20
        0x000004a0:    bdf0        ..      POP      {r4-r7,pc}
    $d
        0x000004a2:    0000        ..      DCW    0
        0x000004a4:    00001230    0...    DCD    4656
        0x000004a8:    40000220     ..@    DCD    1073742368
    $t
    i.CLK_WaitClockReady
    CLK_WaitClockReady
        0x000004ac:    b510        ..      PUSH     {r4,lr}
        0x000004ae:    4604        .F      MOV      r4,r0
        0x000004b0:    4907        .I      LDR      r1,[pc,#28] ; [0x4d0] = 0x20f580
        0x000004b2:    4b08        .K      LDR      r3,[pc,#32] ; [0x4d4] = 0x40000240
        0x000004b4:    e005        ..      B        0x4c2 ; CLK_WaitClockReady + 22
        0x000004b6:    460a        .F      MOV      r2,r1
        0x000004b8:    1e49        I.      SUBS     r1,r1,#1
        0x000004ba:    2a00        .*      CMP      r2,#0
        0x000004bc:    dc01        ..      BGT      0x4c2 ; CLK_WaitClockReady + 22
        0x000004be:    2000        .       MOVS     r0,#0
        0x000004c0:    bd10        ..      POP      {r4,pc}
        0x000004c2:    691a        .i      LDR      r2,[r3,#0x10]
        0x000004c4:    4620         F      MOV      r0,r4
        0x000004c6:    4390        .C      BICS     r0,r0,r2
        0x000004c8:    d1f5        ..      BNE      0x4b6 ; CLK_WaitClockReady + 10
        0x000004ca:    2001        .       MOVS     r0,#1
        0x000004cc:    bd10        ..      POP      {r4,pc}
    $d
        0x000004ce:    0000        ..      DCW    0
        0x000004d0:    0020f580    .. .    DCD    2160000
        0x000004d4:    40000240    @..@    DCD    1073742400
    $t
    i.GPIO_SetMode
    GPIO_SetMode
        0x000004d8:    b5f0        ..      PUSH     {r4-r7,lr}
        0x000004da:    2300        .#      MOVS     r3,#0
        0x000004dc:    2701        .'      MOVS     r7,#1
        0x000004de:    463c        <F      MOV      r4,r7
        0x000004e0:    409c        .@      LSLS     r4,r4,r3
        0x000004e2:    420c        .B      TST      r4,r1
        0x000004e4:    d008        ..      BEQ      0x4f8 ; GPIO_SetMode + 32
        0x000004e6:    6805        .h      LDR      r5,[r0,#0]
        0x000004e8:    005c        \.      LSLS     r4,r3,#1
        0x000004ea:    2603        .&      MOVS     r6,#3
        0x000004ec:    40a6        .@      LSLS     r6,r6,r4
        0x000004ee:    43b5        .C      BICS     r5,r5,r6
        0x000004f0:    4616        .F      MOV      r6,r2
        0x000004f2:    40a6        .@      LSLS     r6,r6,r4
        0x000004f4:    4335        5C      ORRS     r5,r5,r6
        0x000004f6:    6005        .`      STR      r5,[r0,#0]
        0x000004f8:    1c5b        [.      ADDS     r3,r3,#1
        0x000004fa:    2b10        .+      CMP      r3,#0x10
        0x000004fc:    d3ef        ..      BCC      0x4de ; GPIO_SetMode + 6
        0x000004fe:    bdf0        ..      POP      {r4-r7,pc}
    i.Hard_Fault_Handler
    Hard_Fault_Handler
    __tagsym$$used
        0x00000500:    4604        .F      MOV      r4,r0
        0x00000502:    a003        ..      ADR      r0,{pc}+0xe ; 0x510
        0x00000504:    f000fc52    ..R.    BL       __0printf$5 ; 0xdac
        0x00000508:    4620         F      MOV      r0,r4
        0x0000050a:    f000fe2d    ..-.    BL       stackDump ; 0x1168
        0x0000050e:    e7fe        ..      B        0x50e ; Hard_Fault_Handler + 14
    $d
        0x00000510:    48206e49    In H    DCD    1210084937
        0x00000514:    20647261    ard     DCD    543453793
        0x00000518:    6c756146    Faul    DCD    1819631942
        0x0000051c:    61482074    t Ha    DCD    1632116852
        0x00000520:    656c646e    ndle    DCD    1701602414
        0x00000524:    00000a72    r...    DCD    2674
    $t
    i.I2C0_IRQHandler
    I2C0_IRQHandler
        0x00000528:    b510        ..      PUSH     {r4,lr}
        0x0000052a:    4908        .I      LDR      r1,[pc,#32] ; [0x54c] = 0x40080000
        0x0000052c:    68c8        .h      LDR      r0,[r1,#0xc]
        0x0000052e:    694a        Ji      LDR      r2,[r1,#0x14]
        0x00000530:    43d2        .C      MVNS     r2,r2
        0x00000532:    07d2        ..      LSLS     r2,r2,#31
        0x00000534:    d006        ..      BEQ      0x544 ; I2C0_IRQHandler + 28
        0x00000536:    4906        .I      LDR      r1,[pc,#24] ; [0x550] = 0x20000010
        0x00000538:    684a        Jh      LDR      r2,[r1,#4]
        0x0000053a:    2a00        .*      CMP      r2,#0
        0x0000053c:    d001        ..      BEQ      0x542 ; I2C0_IRQHandler + 26
        0x0000053e:    6849        Ih      LDR      r1,[r1,#4]
        0x00000540:    4788        .G      BLX      r1
        0x00000542:    bd10        ..      POP      {r4,pc}
        0x00000544:    4608        .F      MOV      r0,r1
        0x00000546:    f000f837    ..7.    BL       I2C_ClearTimeoutFlag ; 0x5b8
        0x0000054a:    bd10        ..      POP      {r4,pc}
    $d
        0x0000054c:    40080000    ...@    DCD    1074266112
        0x00000550:    20000010    ...     DCD    536870928
    $t
    i.I2C0_Init
    I2C0_Init
        0x00000554:    b510        ..      PUSH     {r4,lr}
        0x00000556:    4c0f        .L      LDR      r4,[pc,#60] ; [0x594] = 0x40080000
        0x00000558:    490d        .I      LDR      r1,[pc,#52] ; [0x590] = 0x61a80
        0x0000055a:    4620         F      MOV      r0,r4
        0x0000055c:    f000f848    ..H.    BL       I2C_Open ; 0x5f0
        0x00000560:    4620         F      MOV      r0,r4
        0x00000562:    f000f833    ..3.    BL       I2C_GetBusClockFreq ; 0x5cc
        0x00000566:    4601        .F      MOV      r1,r0
        0x00000568:    a00b        ..      ADR      r0,{pc}+0x30 ; 0x598
        0x0000056a:    f000fc1f    ....    BL       __0printf$5 ; 0xdac
        0x0000056e:    2300        .#      MOVS     r3,#0
        0x00000570:    2215        ."      MOVS     r2,#0x15
        0x00000572:    4619        .F      MOV      r1,r3
        0x00000574:    4620         F      MOV      r0,r4
        0x00000576:    f000f85f    .._.    BL       I2C_SetSlaveAddr ; 0x638
        0x0000057a:    4620         F      MOV      r0,r4
        0x0000057c:    f000f821    ..!.    BL       I2C_EnableInt ; 0x5c2
        0x00000580:    2001        .       MOVS     r0,#1
        0x00000582:    490a        .I      LDR      r1,[pc,#40] ; [0x5ac] = 0xe000e100
        0x00000584:    0480        ..      LSLS     r0,r0,#18
        0x00000586:    6008        .`      STR      r0,[r1,#0]
        0x00000588:    490a        .I      LDR      r1,[pc,#40] ; [0x5b4] = 0x20000010
        0x0000058a:    4809        .H      LDR      r0,[pc,#36] ; [0x5b0] = 0x659
        0x0000058c:    6048        H`      STR      r0,[r1,#4]
        0x0000058e:    bd10        ..      POP      {r4,pc}
    $d
        0x00000590:    00061a80    ....    DCD    400000
        0x00000594:    40080000    ...@    DCD    1074266112
        0x00000598:    20433249    I2C     DCD    541274697
        0x0000059c:    636f6c63    cloc    DCD    1668246627
        0x000005a0:    6425206b    k %d    DCD    1680154731
        0x000005a4:    0a7a4820     Hz.    DCD    175786016
        0x000005a8:    00000000    ....    DCD    0
        0x000005ac:    e000e100    ....    DCD    3758153984
        0x000005b0:    00000659    Y...    DCD    1625
        0x000005b4:    20000010    ...     DCD    536870928
    $t
    i.I2C_ClearTimeoutFlag
    I2C_ClearTimeoutFlag
        0x000005b8:    6941        Ai      LDR      r1,[r0,#0x14]
        0x000005ba:    2201        ."      MOVS     r2,#1
        0x000005bc:    4311        .C      ORRS     r1,r1,r2
        0x000005be:    6141        Aa      STR      r1,[r0,#0x14]
        0x000005c0:    4770        pG      BX       lr
    i.I2C_EnableInt
    I2C_EnableInt
        0x000005c2:    6801        .h      LDR      r1,[r0,#0]
        0x000005c4:    2280        ."      MOVS     r2,#0x80
        0x000005c6:    4311        .C      ORRS     r1,r1,r2
        0x000005c8:    6001        .`      STR      r1,[r0,#0]
        0x000005ca:    4770        pG      BX       lr
    i.I2C_GetBusClockFreq
    I2C_GetBusClockFreq
        0x000005cc:    b510        ..      PUSH     {r4,lr}
        0x000005ce:    6904        .i      LDR      r4,[r0,#0x10]
        0x000005d0:    4906        .I      LDR      r1,[pc,#24] ; [0x5ec] = 0x40081000
        0x000005d2:    4288        .B      CMP      r0,r1
        0x000005d4:    d102        ..      BNE      0x5dc ; I2C_GetBusClockFreq + 16
        0x000005d6:    f7fffea1    ....    BL       CLK_GetPCLK1Freq ; 0x31c
        0x000005da:    e001        ..      B        0x5e0 ; I2C_GetBusClockFreq + 20
        0x000005dc:    f7fffe8e    ....    BL       CLK_GetPCLK0Freq ; 0x2fc
        0x000005e0:    00a1        ..      LSLS     r1,r4,#2
        0x000005e2:    1d09        ..      ADDS     r1,r1,#4
        0x000005e4:    f7fffdb4    ....    BL       __aeabi_uidiv ; 0x150
        0x000005e8:    bd10        ..      POP      {r4,pc}
    $d
        0x000005ea:    0000        ..      DCW    0
        0x000005ec:    40081000    ...@    DCD    1074270208
    $t
    i.I2C_Open
    I2C_Open
        0x000005f0:    b570        p.      PUSH     {r4-r6,lr}
        0x000005f2:    4605        .F      MOV      r5,r0
        0x000005f4:    480f        .H      LDR      r0,[pc,#60] ; [0x634] = 0x40081000
        0x000005f6:    460e        .F      MOV      r6,r1
        0x000005f8:    4285        .B      CMP      r5,r0
        0x000005fa:    d102        ..      BNE      0x602 ; I2C_Open + 18
        0x000005fc:    f7fffe8e    ....    BL       CLK_GetPCLK1Freq ; 0x31c
        0x00000600:    e001        ..      B        0x606 ; I2C_Open + 22
        0x00000602:    f7fffe7b    ..{.    BL       CLK_GetPCLK0Freq ; 0x2fc
        0x00000606:    4604        .F      MOV      r4,r0
        0x00000608:    220a        ."      MOVS     r2,#0xa
        0x0000060a:    00b1        ..      LSLS     r1,r6,#2
        0x0000060c:    4350        PC      MULS     r0,r2,r0
        0x0000060e:    f7fffd9f    ....    BL       __aeabi_uidiv ; 0x150
        0x00000612:    210a        .!      MOVS     r1,#0xa
        0x00000614:    1d40        @.      ADDS     r0,r0,#5
        0x00000616:    f7fffd9b    ....    BL       __aeabi_uidiv ; 0x150
        0x0000061a:    1e40        @.      SUBS     r0,r0,#1
        0x0000061c:    6128        (a      STR      r0,[r5,#0x10]
        0x0000061e:    6829        )h      LDR      r1,[r5,#0]
        0x00000620:    2240        @"      MOVS     r2,#0x40
        0x00000622:    4311        .C      ORRS     r1,r1,r2
        0x00000624:    6029        )`      STR      r1,[r5,#0]
        0x00000626:    0081        ..      LSLS     r1,r0,#2
        0x00000628:    4620         F      MOV      r0,r4
        0x0000062a:    1d09        ..      ADDS     r1,r1,#4
        0x0000062c:    f7fffd90    ....    BL       __aeabi_uidiv ; 0x150
        0x00000630:    bd70        p.      POP      {r4-r6,pc}
    $d
        0x00000632:    0000        ..      DCW    0
        0x00000634:    40081000    ...@    DCD    1074270208
    $t
    i.I2C_SetSlaveAddr
    I2C_SetSlaveAddr
        0x00000638:    0052        R.      LSLS     r2,r2,#1
        0x0000063a:    431a        .C      ORRS     r2,r2,r3
        0x0000063c:    2901        .)      CMP      r1,#1
        0x0000063e:    d005        ..      BEQ      0x64c ; I2C_SetSlaveAddr + 20
        0x00000640:    2902        .)      CMP      r1,#2
        0x00000642:    d005        ..      BEQ      0x650 ; I2C_SetSlaveAddr + 24
        0x00000644:    2903        .)      CMP      r1,#3
        0x00000646:    d005        ..      BEQ      0x654 ; I2C_SetSlaveAddr + 28
        0x00000648:    6042        B`      STR      r2,[r0,#4]
        0x0000064a:    4770        pG      BX       lr
        0x0000064c:    6182        .a      STR      r2,[r0,#0x18]
        0x0000064e:    4770        pG      BX       lr
        0x00000650:    61c2        .a      STR      r2,[r0,#0x1c]
        0x00000652:    4770        pG      BX       lr
        0x00000654:    6202        .b      STR      r2,[r0,#0x20]
        0x00000656:    4770        pG      BX       lr
    i.I2C_SlaveTRx
    I2C_SlaveTRx
        0x00000658:    b5f8        ..      PUSH     {r3-r7,lr}
        0x0000065a:    2600        .&      MOVS     r6,#0
        0x0000065c:    273c        <'      MOVS     r7,#0x3c
        0x0000065e:    4d45        EM      LDR      r5,[pc,#276] ; [0x774] = 0x40080000
        0x00000660:    4c45        EL      LDR      r4,[pc,#276] ; [0x778] = 0x20000010
        0x00000662:    28a0        .(      CMP      r0,#0xa0
        0x00000664:    d006        ..      BEQ      0x674 ; I2C_SlaveTRx + 28
        0x00000666:    dc06        ..      BGT      0x676 ; I2C_SlaveTRx + 30
        0x00000668:    2860        `(      CMP      r0,#0x60
        0x0000066a:    d0fb        ..      BEQ      0x664 ; I2C_SlaveTRx + 12
        0x0000066c:    2880        .(      CMP      r0,#0x80
        0x0000066e:    d00d        ..      BEQ      0x68c ; I2C_SlaveTRx + 52
        0x00000670:    2888        .(      CMP      r0,#0x88
        0x00000672:    d106        ..      BNE      0x682 ; I2C_SlaveTRx + 42
        0x00000674:    e07b        {.      B        0x76e ; I2C_SlaveTRx + 278
        0x00000676:    28a8        .(      CMP      r0,#0xa8
        0x00000678:    d054        T.      BEQ      0x724 ; I2C_SlaveTRx + 204
        0x0000067a:    28b8        .(      CMP      r0,#0xb8
        0x0000067c:    d060        `.      BEQ      0x740 ; I2C_SlaveTRx + 232
        0x0000067e:    28c0        .(      CMP      r0,#0xc0
        0x00000680:    d068        h.      BEQ      0x754 ; I2C_SlaveTRx + 252
        0x00000682:    4601        .F      MOV      r1,r0
        0x00000684:    a03d        =.      ADR      r0,{pc}+0xf8 ; 0x77c
        0x00000686:    f000fb91    ....    BL       __0printf$5 ; 0xdac
        0x0000068a:    bdf8        ..      POP      {r3-r7,pc}
        0x0000068c:    68a8        .h      LDR      r0,[r5,#8]
        0x0000068e:    b2c1        ..      UXTB     r1,r0
        0x00000690:    7860        `x      LDRB     r0,[r4,#1]
        0x00000692:    2807        .(      CMP      r0,#7
        0x00000694:    d228        (.      BCS      0x6e8 ; I2C_SlaveTRx + 144
        0x00000696:    7862        bx      LDRB     r2,[r4,#1]
        0x00000698:    4837        7H      LDR      r0,[pc,#220] ; [0x778] = 0x20000010
        0x0000069a:    3014        .0      ADDS     r0,r0,#0x14
        0x0000069c:    1883        ..      ADDS     r3,r0,r2
        0x0000069e:    1c52        R.      ADDS     r2,r2,#1
        0x000006a0:    7062        bp      STRB     r2,[r4,#1]
        0x000006a2:    7019        .p      STRB     r1,[r3,#0]
        0x000006a4:    7801        .x      LDRB     r1,[r0,#0]
        0x000006a6:    7021        !p      STRB     r1,[r4,#0]
        0x000006a8:    7841        Ax      LDRB     r1,[r0,#1]
        0x000006aa:    7882        .x      LDRB     r2,[r0,#2]
        0x000006ac:    0409        ..      LSLS     r1,r1,#16
        0x000006ae:    0212        ..      LSLS     r2,r2,#8
        0x000006b0:    1889        ..      ADDS     r1,r1,r2
        0x000006b2:    78c2        .x      LDRB     r2,[r0,#3]
        0x000006b4:    1889        ..      ADDS     r1,r1,r2
        0x000006b6:    6121        !a      STR      r1,[r4,#0x10]
        0x000006b8:    7901        .y      LDRB     r1,[r0,#4]
        0x000006ba:    7942        By      LDRB     r2,[r0,#5]
        0x000006bc:    0409        ..      LSLS     r1,r1,#16
        0x000006be:    0212        ..      LSLS     r2,r2,#8
        0x000006c0:    7980        .y      LDRB     r0,[r0,#6]
        0x000006c2:    1889        ..      ADDS     r1,r1,r2
        0x000006c4:    1808        ..      ADDS     r0,r1,r0
        0x000006c6:    60e0        .`      STR      r0,[r4,#0xc]
        0x000006c8:    7860        `x      LDRB     r0,[r4,#1]
        0x000006ca:    2807        .(      CMP      r0,#7
        0x000006cc:    d14a        J.      BNE      0x764 ; I2C_SlaveTRx + 268
        0x000006ce:    7820         x      LDRB     r0,[r4,#0]
        0x000006d0:    28ff        .(      CMP      r0,#0xff
        0x000006d2:    d147        G.      BNE      0x764 ; I2C_SlaveTRx + 268
        0x000006d4:    a031        1.      ADR      r0,{pc}+0xc8 ; 0x79c
        0x000006d6:    f000fb69    ..i.    BL       __0printf$5 ; 0xdac
        0x000006da:    68e1        .h      LDR      r1,[r4,#0xc]
        0x000006dc:    6920         i      LDR      r0,[r4,#0x10]
        0x000006de:    f000f9f9    ....    BL       SpiFlash_NormalRead ; 0xad4
        0x000006e2:    f000fa6d    ..m.    BL       SpiFlash_WaitReady ; 0xbc0
        0x000006e6:    e011        ..      B        0x70c ; I2C_SlaveTRx + 180
        0x000006e8:    4830        0H      LDR      r0,[pc,#192] ; [0x7ac] = 0x2000002c
        0x000006ea:    68a2        .h      LDR      r2,[r4,#8]
        0x000006ec:    5481        .T      STRB     r1,[r0,r2]
        0x000006ee:    1c52        R.      ADDS     r2,r2,#1
        0x000006f0:    60a2        .`      STR      r2,[r4,#8]
        0x000006f2:    68e0        .h      LDR      r0,[r4,#0xc]
        0x000006f4:    4282        .B      CMP      r2,r0
        0x000006f6:    d10d        ..      BNE      0x714 ; I2C_SlaveTRx + 188
        0x000006f8:    a02d        -.      ADR      r0,{pc}+0xb8 ; 0x7b0
        0x000006fa:    f000fb57    ..W.    BL       __0printf$5 ; 0xdac
        0x000006fe:    68e1        .h      LDR      r1,[r4,#0xc]
        0x00000700:    6920         i      LDR      r0,[r4,#0x10]
        0x00000702:    f000f9ab    ....    BL       SpiFlash_NormalPageProgram ; 0xa5c
        0x00000706:    f000fa5b    ..[.    BL       SpiFlash_WaitReady ; 0xbc0
        0x0000070a:    60a6        .`      STR      r6,[r4,#8]
        0x0000070c:    a032        2.      ADR      r0,{pc}+0xcc ; 0x7d8
        0x0000070e:    f000fb4d    ..M.    BL       __0printf$5 ; 0xdac
        0x00000712:    e027        '.      B        0x764 ; I2C_SlaveTRx + 268
        0x00000714:    68e0        .h      LDR      r0,[r4,#0xc]
        0x00000716:    4282        .B      CMP      r2,r0
        0x00000718:    d924        $.      BLS      0x764 ; I2C_SlaveTRx + 268
        0x0000071a:    a030        0.      ADR      r0,{pc}+0xc2 ; 0x7dc
        0x0000071c:    f000fb46    ..F.    BL       __0printf$5 ; 0xdac
        0x00000720:    60a6        .`      STR      r6,[r4,#8]
        0x00000722:    e01f        ..      B        0x764 ; I2C_SlaveTRx + 268
        0x00000724:    f000fa4c    ..L.    BL       SpiFlash_WaitReady ; 0xbc0
        0x00000728:    68a8        .h      LDR      r0,[r5,#8]
        0x0000072a:    60e6        .`      STR      r6,[r4,#0xc]
        0x0000072c:    68e0        .h      LDR      r0,[r4,#0xc]
        0x0000072e:    60a8        .`      STR      r0,[r5,#8]
        0x00000730:    4830        0H      LDR      r0,[pc,#192] ; [0x7f4] = 0x2000012c
        0x00000732:    68e1        .h      LDR      r1,[r4,#0xc]
        0x00000734:    5c40        @\      LDRB     r0,[r0,r1]
        0x00000736:    60a8        .`      STR      r0,[r5,#8]
        0x00000738:    68e0        .h      LDR      r0,[r4,#0xc]
        0x0000073a:    1c40        @.      ADDS     r0,r0,#1
        0x0000073c:    60e0        .`      STR      r0,[r4,#0xc]
        0x0000073e:    e011        ..      B        0x764 ; I2C_SlaveTRx + 268
        0x00000740:    f000fa3e    ..>.    BL       SpiFlash_WaitReady ; 0xbc0
        0x00000744:    68e0        .h      LDR      r0,[r4,#0xc]
        0x00000746:    492b        +I      LDR      r1,[pc,#172] ; [0x7f4] = 0x2000012c
        0x00000748:    1809        ..      ADDS     r1,r1,r0
        0x0000074a:    1c40        @.      ADDS     r0,r0,#1
        0x0000074c:    60e0        .`      STR      r0,[r4,#0xc]
        0x0000074e:    7808        .x      LDRB     r0,[r1,#0]
        0x00000750:    60a8        .`      STR      r0,[r5,#8]
        0x00000752:    e007        ..      B        0x764 ; I2C_SlaveTRx + 268
        0x00000754:    68e0        .h      LDR      r0,[r4,#0xc]
        0x00000756:    4927        'I      LDR      r1,[pc,#156] ; [0x7f4] = 0x2000012c
        0x00000758:    1809        ..      ADDS     r1,r1,r0
        0x0000075a:    1c40        @.      ADDS     r0,r0,#1
        0x0000075c:    60e0        .`      STR      r0,[r4,#0xc]
        0x0000075e:    7808        .x      LDRB     r0,[r1,#0]
        0x00000760:    60a8        .`      STR      r0,[r5,#8]
        0x00000762:    60e6        .`      STR      r6,[r4,#0xc]
        0x00000764:    6828        (h      LDR      r0,[r5,#0]
        0x00000766:    43b8        .C      BICS     r0,r0,r7
        0x00000768:    300c        .0      ADDS     r0,r0,#0xc
        0x0000076a:    6028        (`      STR      r0,[r5,#0]
        0x0000076c:    bdf8        ..      POP      {r3-r7,pc}
        0x0000076e:    7066        fp      STRB     r6,[r4,#1]
        0x00000770:    e7d6        ..      B        0x720 ; I2C_SlaveTRx + 200
    $d
        0x00000772:    0000        ..      DCW    0
        0x00000774:    40080000    ...@    DCD    1074266112
        0x00000778:    20000010    ...     DCD    536870928
        0x0000077c:    74617453    Stat    DCD    1952543827
        0x00000780:    30207375    us 0    DCD    807433077
        0x00000784:    20782578    x%x     DCD    544744824
        0x00000788:    4e207369    is N    DCD    1310749545
        0x0000078c:    7020544f    OT p    DCD    1881166927
        0x00000790:    65636f72    roce    DCD    1701015410
        0x00000794:    64657373    ssed    DCD    1684370291
        0x00000798:    0000000a    ....    DCD    10
        0x0000079c:    6d726f4e    Norm    DCD    1836216142
        0x000007a0:    72206c61    al r    DCD    1914727521
        0x000007a4:    2e646165    ead.    DCD    778330469
        0x000007a8:    00002e2e    ....    DCD    11822
        0x000007ac:    2000002c    ,..     DCD    536870956
        0x000007b0:    72617453    Star    DCD    1918989395
        0x000007b4:    6f742074    t to    DCD    1869881460
        0x000007b8:    726f6e20     nor    DCD    1919905312
        0x000007bc:    206c616d    mal     DCD    543973741
        0x000007c0:    74697277    writ    DCD    1953067639
        0x000007c4:    61642065    e da    DCD    1633951845
        0x000007c8:    74206174    ta t    DCD    1948279156
        0x000007cc:    6c46206f    o Fl    DCD    1816535151
        0x000007d0:    20687361    ash     DCD    543716193
        0x000007d4:    002e2e2e    ....    DCD    3026478
        0x000007d8:    000a4b4f    OK..    DCD    674639
        0x000007dc:    6f727245    Erro    DCD    1869771333
        0x000007e0:    6f6e2072    r no    DCD    1869488242
        0x000007e4:    656c2074    t le    DCD    1701585012
        0x000007e8:    73207466    ft s    DCD    1931506790
        0x000007ec:    65636170    pace    DCD    1701011824
        0x000007f0:    0000000a    ....    DCD    10
        0x000007f4:    2000012c    ,..     DCD    536871212
    $t
    i.SPI0_Init
    SPI0_Init
        0x000007f8:    b538        8.      PUSH     {r3-r5,lr}
        0x000007fa:    2001        .       MOVS     r0,#1
        0x000007fc:    0780        ..      LSLS     r0,r0,#30
        0x000007fe:    6b01        .k      LDR      r1,[r0,#0x30]
        0x00000800:    0c09        ..      LSRS     r1,r1,#16
        0x00000802:    0409        ..      LSLS     r1,r1,#16
        0x00000804:    6301        .c      STR      r1,[r0,#0x30]
        0x00000806:    6b01        .k      LDR      r1,[r0,#0x30]
        0x00000808:    4a07        .J      LDR      r2,[pc,#28] ; [0x828] = 0x4444
        0x0000080a:    4311        .C      ORRS     r1,r1,r2
        0x0000080c:    6301        .c      STR      r1,[r0,#0x30]
        0x0000080e:    4807        .H      LDR      r0,[pc,#28] ; [0x82c] = 0x989680
        0x00000810:    4c07        .L      LDR      r4,[pc,#28] ; [0x830] = 0x40061000
        0x00000812:    9000        ..      STR      r0,[sp,#0]
        0x00000814:    2308        .#      MOVS     r3,#8
        0x00000816:    2204        ."      MOVS     r2,#4
        0x00000818:    2100        .!      MOVS     r1,#0
        0x0000081a:    4620         F      MOV      r0,r4
        0x0000081c:    f000f816    ....    BL       SPI_Open ; 0x84c
        0x00000820:    4620         F      MOV      r0,r4
        0x00000822:    f000f80d    ....    BL       SPI_DisableAutoSS ; 0x840
        0x00000826:    bd38        8.      POP      {r3-r5,pc}
    $d
        0x00000828:    00004444    DD..    DCD    17476
        0x0000082c:    00989680    ....    DCD    10000000
        0x00000830:    40061000    ...@    DCD    1074139136
    $t
    i.SPI_ClearRxFIFO
    SPI_ClearRxFIFO
        0x00000834:    6901        .i      LDR      r1,[r0,#0x10]
        0x00000836:    22ff        ."      MOVS     r2,#0xff
        0x00000838:    3201        .2      ADDS     r2,#1
        0x0000083a:    4311        .C      ORRS     r1,r1,r2
        0x0000083c:    6101        .a      STR      r1,[r0,#0x10]
        0x0000083e:    4770        pG      BX       lr
    i.SPI_DisableAutoSS
    SPI_DisableAutoSS
        0x00000840:    6881        .h      LDR      r1,[r0,#8]
        0x00000842:    2209        ."      MOVS     r2,#9
        0x00000844:    4391        .C      BICS     r1,r1,r2
        0x00000846:    6081        .`      STR      r1,[r0,#8]
        0x00000848:    4770        pG      BX       lr
        0x0000084a:    0000        ..      MOVS     r0,r0
    i.SPI_Open
    SPI_Open
        0x0000084c:    b5ff        ..      PUSH     {r0-r7,lr}
        0x0000084e:    4604        .F      MOV      r4,r0
        0x00000850:    b081        ..      SUB      sp,sp,#4
        0x00000852:    4840        @H      LDR      r0,[pc,#256] ; [0x954] = 0x40061000
        0x00000854:    9d0a        ..      LDR      r5,[sp,#0x28]
        0x00000856:    461e        .F      MOV      r6,r3
        0x00000858:    4284        .B      CMP      r4,r0
        0x0000085a:    d002        ..      BEQ      0x862 ; SPI_Open + 22
        0x0000085c:    2000        .       MOVS     r0,#0
        0x0000085e:    b005        ..      ADD      sp,sp,#0x14
        0x00000860:    bdf0        ..      POP      {r4-r7,pc}
        0x00000862:    6e20         n      LDR      r0,[r4,#0x60]
        0x00000864:    0840        @.      LSRS     r0,r0,#1
        0x00000866:    0040        @.      LSLS     r0,r0,#1
        0x00000868:    6620         f      STR      r0,[r4,#0x60]
        0x0000086a:    2e20         .      CMP      r6,#0x20
        0x0000086c:    d100        ..      BNE      0x870 ; SPI_Open + 36
        0x0000086e:    2600        .&      MOVS     r6,#0
        0x00000870:    f7fffd1a    ....    BL       CLK_GetHCLKFreq ; 0x2a8
        0x00000874:    4607        .F      MOV      r7,r0
        0x00000876:    9902        ..      LDR      r1,[sp,#8]
        0x00000878:    2201        ."      MOVS     r2,#1
        0x0000087a:    2300        .#      MOVS     r3,#0
        0x0000087c:    4836        6H      LDR      r0,[pc,#216] ; [0x958] = 0x40000200
        0x0000087e:    2900        .)      CMP      r1,#0
        0x00000880:    d015        ..      BEQ      0x8ae ; SPI_Open + 98
        0x00000882:    60a3        .`      STR      r3,[r4,#8]
        0x00000884:    9d02        ..      LDR      r5,[sp,#8]
        0x00000886:    0231        1.      LSLS     r1,r6,#8
        0x00000888:    4329        )C      ORRS     r1,r1,r5
        0x0000088a:    9d03        ..      LDR      r5,[sp,#0xc]
        0x0000088c:    4329        )C      ORRS     r1,r1,r5
        0x0000088e:    4311        .C      ORRS     r1,r1,r2
        0x00000890:    6021        !`      STR      r1,[r4,#0]
        0x00000892:    6063        c`      STR      r3,[r4,#4]
        0x00000894:    4604        .F      MOV      r4,r0
        0x00000896:    6980        .i      LDR      r0,[r0,#0x18]
        0x00000898:    2130        0!      MOVS     r1,#0x30
        0x0000089a:    4388        .C      BICS     r0,r0,r1
        0x0000089c:    3020         0      ADDS     r0,r0,#0x20
        0x0000089e:    61a0        .a      STR      r0,[r4,#0x18]
        0x000008a0:    f7fffd02    ....    BL       CLK_GetHCLKFreq ; 0x2a8
        0x000008a4:    6b61        ak      LDR      r1,[r4,#0x34]
        0x000008a6:    0749        I.      LSLS     r1,r1,#29
        0x000008a8:    0f49        I.      LSRS     r1,r1,#29
        0x000008aa:    1c49        I.      ADDS     r1,r1,#1
        0x000008ac:    e04e        N.      B        0x94c ; SPI_Open + 256
        0x000008ae:    2100        .!      MOVS     r1,#0
        0x000008b0:    60a1        .`      STR      r1,[r4,#8]
        0x000008b2:    9b03        ..      LDR      r3,[sp,#0xc]
        0x000008b4:    0231        1.      LSLS     r1,r6,#8
        0x000008b6:    4319        .C      ORRS     r1,r1,r3
        0x000008b8:    4311        .C      ORRS     r1,r1,r2
        0x000008ba:    6021        !`      STR      r1,[r4,#0]
        0x000008bc:    42bd        .B      CMP      r5,r7
        0x000008be:    d304        ..      BCC      0x8ca ; SPI_Open + 126
        0x000008c0:    6981        .i      LDR      r1,[r0,#0x18]
        0x000008c2:    2230        0"      MOVS     r2,#0x30
        0x000008c4:    4391        .C      BICS     r1,r1,r2
        0x000008c6:    3120         1      ADDS     r1,r1,#0x20
        0x000008c8:    6181        .a      STR      r1,[r0,#0x18]
        0x000008ca:    6981        .i      LDR      r1,[r0,#0x18]
        0x000008cc:    0689        ..      LSLS     r1,r1,#26
        0x000008ce:    0f89        ..      LSRS     r1,r1,#30
        0x000008d0:    d012        ..      BEQ      0x8f8 ; SPI_Open + 172
        0x000008d2:    6981        .i      LDR      r1,[r0,#0x18]
        0x000008d4:    0689        ..      LSLS     r1,r1,#26
        0x000008d6:    0f89        ..      LSRS     r1,r1,#30
        0x000008d8:    2901        .)      CMP      r1,#1
        0x000008da:    d00f        ..      BEQ      0x8fc ; SPI_Open + 176
        0x000008dc:    6981        .i      LDR      r1,[r0,#0x18]
        0x000008de:    0689        ..      LSLS     r1,r1,#26
        0x000008e0:    0f89        ..      LSRS     r1,r1,#30
        0x000008e2:    2902        .)      CMP      r1,#2
        0x000008e4:    d00d        ..      BEQ      0x902 ; SPI_Open + 182
        0x000008e6:    4e1d        .N      LDR      r6,[pc,#116] ; [0x95c] = 0x2dc6c00
        0x000008e8:    42bd        .B      CMP      r5,r7
        0x000008ea:    d201        ..      BCS      0x8f0 ; SPI_Open + 164
        0x000008ec:    42b5        .B      CMP      r5,r6
        0x000008ee:    d311        ..      BCC      0x914 ; SPI_Open + 200
        0x000008f0:    2000        .       MOVS     r0,#0
        0x000008f2:    6060        ``      STR      r0,[r4,#4]
        0x000008f4:    4630        0F      MOV      r0,r6
        0x000008f6:    e7b2        ..      B        0x85e ; SPI_Open + 18
        0x000008f8:    4e19        .N      LDR      r6,[pc,#100] ; [0x960] = 0x1e84800
        0x000008fa:    e7f5        ..      B        0x8e8 ; SPI_Open + 156
        0x000008fc:    f7fffd4a    ..J.    BL       CLK_GetPLLClockFreq ; 0x394
        0x00000900:    e006        ..      B        0x910 ; SPI_Open + 196
        0x00000902:    6b40        @k      LDR      r0,[r0,#0x34]
        0x00000904:    0741        A.      LSLS     r1,r0,#29
        0x00000906:    0f49        I.      LSRS     r1,r1,#29
        0x00000908:    4638        8F      MOV      r0,r7
        0x0000090a:    1c49        I.      ADDS     r1,r1,#1
        0x0000090c:    f7fffc20    .. .    BL       __aeabi_uidiv ; 0x150
        0x00000910:    4606        .F      MOV      r6,r0
        0x00000912:    e7e9        ..      B        0x8e8 ; SPI_Open + 156
        0x00000914:    4f13        .O      LDR      r7,[pc,#76] ; [0x964] = 0x1ff
        0x00000916:    2d00        .-      CMP      r5,#0
        0x00000918:    d00c        ..      BEQ      0x934 ; SPI_Open + 232
        0x0000091a:    4630        0F      MOV      r0,r6
        0x0000091c:    210a        .!      MOVS     r1,#0xa
        0x0000091e:    4348        HC      MULS     r0,r1,r0
        0x00000920:    4629        )F      MOV      r1,r5
        0x00000922:    f7fffc15    ....    BL       __aeabi_uidiv ; 0x150
        0x00000926:    210a        .!      MOVS     r1,#0xa
        0x00000928:    1d40        @.      ADDS     r0,r0,#5
        0x0000092a:    f7fffc11    ....    BL       __aeabi_uidiv ; 0x150
        0x0000092e:    1e40        @.      SUBS     r0,r0,#1
        0x00000930:    28ff        .(      CMP      r0,#0xff
        0x00000932:    d904        ..      BLS      0x93e ; SPI_Open + 242
        0x00000934:    6860        `h      LDR      r0,[r4,#4]
        0x00000936:    4338        8C      ORRS     r0,r0,r7
        0x00000938:    6060        ``      STR      r0,[r4,#4]
        0x0000093a:    0a30        0.      LSRS     r0,r6,#8
        0x0000093c:    e78f        ..      B        0x85e ; SPI_Open + 18
        0x0000093e:    6861        ah      LDR      r1,[r4,#4]
        0x00000940:    0a49        I.      LSRS     r1,r1,#9
        0x00000942:    0249        I.      LSLS     r1,r1,#9
        0x00000944:    4301        .C      ORRS     r1,r1,r0
        0x00000946:    6061        a`      STR      r1,[r4,#4]
        0x00000948:    1c41        A.      ADDS     r1,r0,#1
        0x0000094a:    4630        0F      MOV      r0,r6
        0x0000094c:    f7fffc00    ....    BL       __aeabi_uidiv ; 0x150
        0x00000950:    e785        ..      B        0x85e ; SPI_Open + 18
    $d
        0x00000952:    0000        ..      DCW    0
        0x00000954:    40061000    ...@    DCD    1074139136
        0x00000958:    40000200    ...@    DCD    1073742336
        0x0000095c:    02dc6c00    .l..    DCD    48000000
        0x00000960:    01e84800    .H..    DCD    32000000
        0x00000964:    000001ff    ....    DCD    511
    $t
    i.SYS_Init
    SYS_Init
        0x00000968:    b570        p.      PUSH     {r4-r6,lr}
        0x0000096a:    2059        Y       MOVS     r0,#0x59
        0x0000096c:    4c1d        .L      LDR      r4,[pc,#116] ; [0x9e4] = 0x40000100
        0x0000096e:    2216        ."      MOVS     r2,#0x16
        0x00000970:    2188        .!      MOVS     r1,#0x88
        0x00000972:    6020         `      STR      r0,[r4,#0]
        0x00000974:    6022        "`      STR      r2,[r4,#0]
        0x00000976:    6021        !`      STR      r1,[r4,#0]
        0x00000978:    6823        #h      LDR      r3,[r4,#0]
        0x0000097a:    2b00        .+      CMP      r3,#0
        0x0000097c:    d0f9        ..      BEQ      0x972 ; SYS_Init + 10
        0x0000097e:    2004        .       MOVS     r0,#4
        0x00000980:    f7fffc8a    ....    BL       CLK_EnableXtalRC ; 0x298
        0x00000984:    2010        .       MOVS     r0,#0x10
        0x00000986:    f7fffd91    ....    BL       CLK_WaitClockReady ; 0x4ac
        0x0000098a:    2100        .!      MOVS     r1,#0
        0x0000098c:    2007        .       MOVS     r0,#7
        0x0000098e:    f7fffd2d    ..-.    BL       CLK_SetHCLK ; 0x3ec
        0x00000992:    4d15        .M      LDR      r5,[pc,#84] ; [0x9e8] = 0x5f803d10
        0x00000994:    4628        (F      MOV      r0,r5
        0x00000996:    f7fffc67    ..g.    BL       CLK_EnableModuleClock ; 0x268
        0x0000099a:    4e14        .N      LDR      r6,[pc,#80] ; [0x9ec] = 0x6640000d
        0x0000099c:    4630        0F      MOV      r0,r6
        0x0000099e:    f7fffc63    ..c.    BL       CLK_EnableModuleClock ; 0x268
        0x000009a2:    2200        ."      MOVS     r2,#0
        0x000009a4:    2120         !      MOVS     r1,#0x20
        0x000009a6:    4630        0F      MOV      r0,r6
        0x000009a8:    f7fffd48    ..H.    BL       CLK_SetModuleClock ; 0x43c
        0x000009ac:    2103        .!      MOVS     r1,#3
        0x000009ae:    2200        ."      MOVS     r2,#0
        0x000009b0:    0609        ..      LSLS     r1,r1,#24
        0x000009b2:    4628        (F      MOV      r0,r5
        0x000009b4:    f7fffd42    ..B.    BL       CLK_SetModuleClock ; 0x43c
        0x000009b8:    480a        .H      LDR      r0,[pc,#40] ; [0x9e4] = 0x40000100
        0x000009ba:    38f8        .8      SUBS     r0,r0,#0xf8
        0x000009bc:    f7fffc54    ..T.    BL       CLK_EnableModuleClock ; 0x268
        0x000009c0:    f000f906    ....    BL       SystemCoreClockUpdate ; 0xbd0
        0x000009c4:    06a8        ..      LSLS     r0,r5,#26
        0x000009c6:    6bc2        .k      LDR      r2,[r0,#0x3c]
        0x000009c8:    21ff        .!      MOVS     r1,#0xff
        0x000009ca:    0409        ..      LSLS     r1,r1,#16
        0x000009cc:    2333        3#      MOVS     r3,#0x33
        0x000009ce:    438a        .C      BICS     r2,r2,r1
        0x000009d0:    045b        [.      LSLS     r3,r3,#17
        0x000009d2:    18d2        ..      ADDS     r2,r2,r3
        0x000009d4:    63c2        .c      STR      r2,[r0,#0x3c]
        0x000009d6:    6b82        .k      LDR      r2,[r0,#0x38]
        0x000009d8:    438a        .C      BICS     r2,r2,r1
        0x000009da:    18d1        ..      ADDS     r1,r2,r3
        0x000009dc:    6381        .c      STR      r1,[r0,#0x38]
        0x000009de:    2000        .       MOVS     r0,#0
        0x000009e0:    6020         `      STR      r0,[r4,#0]
        0x000009e2:    bd70        p.      POP      {r4-r6,pc}
    $d
        0x000009e4:    40000100    ...@    DCD    1073742080
        0x000009e8:    5f803d10    .=._    DCD    1602239760
        0x000009ec:    6640000d    ..@f    DCD    1715470349
    $t
    i.SendChar
    SendChar
        0x000009f0:    4906        .I      LDR      r1,[pc,#24] ; [0xa0c] = 0x40070000
        0x000009f2:    698a        .i      LDR      r2,[r1,#0x18]
        0x000009f4:    0212        ..      LSLS     r2,r2,#8
        0x000009f6:    d4fc        ..      BMI      0x9f2 ; SendChar + 2
        0x000009f8:    6008        .`      STR      r0,[r1,#0]
        0x000009fa:    280a        .(      CMP      r0,#0xa
        0x000009fc:    d104        ..      BNE      0xa08 ; SendChar + 24
        0x000009fe:    6988        .i      LDR      r0,[r1,#0x18]
        0x00000a00:    0200        ..      LSLS     r0,r0,#8
        0x00000a02:    d4fc        ..      BMI      0x9fe ; SendChar + 14
        0x00000a04:    200d        .       MOVS     r0,#0xd
        0x00000a06:    6008        .`      STR      r0,[r1,#0]
        0x00000a08:    4770        pG      BX       lr
    $d
        0x00000a0a:    0000        ..      DCW    0
        0x00000a0c:    40070000    ...@    DCD    1074200576
    $t
    i.SpiFlash_ChipErase
    SpiFlash_ChipErase
        0x00000a10:    b570        p.      PUSH     {r4-r6,lr}
        0x00000a12:    4811        .H      LDR      r0,[pc,#68] ; [0xa58] = 0x40061000
        0x00000a14:    6881        .h      LDR      r1,[r0,#8]
        0x00000a16:    240c        .$      MOVS     r4,#0xc
        0x00000a18:    43a1        .C      BICS     r1,r1,r4
        0x00000a1a:    2501        .%      MOVS     r5,#1
        0x00000a1c:    4329        )C      ORRS     r1,r1,r5
        0x00000a1e:    6081        .`      STR      r1,[r0,#8]
        0x00000a20:    2106        .!      MOVS     r1,#6
        0x00000a22:    6201        .b      STR      r1,[r0,#0x20]
        0x00000a24:    6941        Ai      LDR      r1,[r0,#0x14]
        0x00000a26:    07c9        ..      LSLS     r1,r1,#31
        0x00000a28:    d1fc        ..      BNE      0xa24 ; SpiFlash_ChipErase + 20
        0x00000a2a:    6881        .h      LDR      r1,[r0,#8]
        0x00000a2c:    2208        ."      MOVS     r2,#8
        0x00000a2e:    4391        .C      BICS     r1,r1,r2
        0x00000a30:    2305        .#      MOVS     r3,#5
        0x00000a32:    4319        .C      ORRS     r1,r1,r3
        0x00000a34:    6081        .`      STR      r1,[r0,#8]
        0x00000a36:    6881        .h      LDR      r1,[r0,#8]
        0x00000a38:    43a1        .C      BICS     r1,r1,r4
        0x00000a3a:    4329        )C      ORRS     r1,r1,r5
        0x00000a3c:    6081        .`      STR      r1,[r0,#8]
        0x00000a3e:    21c7        .!      MOVS     r1,#0xc7
        0x00000a40:    6201        .b      STR      r1,[r0,#0x20]
        0x00000a42:    6941        Ai      LDR      r1,[r0,#0x14]
        0x00000a44:    07c9        ..      LSLS     r1,r1,#31
        0x00000a46:    d1fc        ..      BNE      0xa42 ; SpiFlash_ChipErase + 50
        0x00000a48:    6881        .h      LDR      r1,[r0,#8]
        0x00000a4a:    4391        .C      BICS     r1,r1,r2
        0x00000a4c:    4319        .C      ORRS     r1,r1,r3
        0x00000a4e:    6081        .`      STR      r1,[r0,#8]
        0x00000a50:    f7fffef0    ....    BL       SPI_ClearRxFIFO ; 0x834
        0x00000a54:    bd70        p.      POP      {r4-r6,pc}
    $d
        0x00000a56:    0000        ..      DCW    0
        0x00000a58:    40061000    ...@    DCD    1074139136
    $t
    i.SpiFlash_NormalPageProgram
    SpiFlash_NormalPageProgram
        0x00000a5c:    b5f8        ..      PUSH     {r3-r7,lr}
        0x00000a5e:    4603        .F      MOV      r3,r0
        0x00000a60:    481a        .H      LDR      r0,[pc,#104] ; [0xacc] = 0x40061000
        0x00000a62:    2200        ."      MOVS     r2,#0
        0x00000a64:    6884        .h      LDR      r4,[r0,#8]
        0x00000a66:    270c        .'      MOVS     r7,#0xc
        0x00000a68:    43bc        .C      BICS     r4,r4,r7
        0x00000a6a:    2501        .%      MOVS     r5,#1
        0x00000a6c:    432c        ,C      ORRS     r4,r4,r5
        0x00000a6e:    6084        .`      STR      r4,[r0,#8]
        0x00000a70:    2406        .$      MOVS     r4,#6
        0x00000a72:    6204        .b      STR      r4,[r0,#0x20]
        0x00000a74:    6944        Di      LDR      r4,[r0,#0x14]
        0x00000a76:    07e4        ..      LSLS     r4,r4,#31
        0x00000a78:    d1fc        ..      BNE      0xa74 ; SpiFlash_NormalPageProgram + 24
        0x00000a7a:    6886        .h      LDR      r6,[r0,#8]
        0x00000a7c:    2408        .$      MOVS     r4,#8
        0x00000a7e:    43a6        .C      BICS     r6,r6,r4
        0x00000a80:    2505        .%      MOVS     r5,#5
        0x00000a82:    432e        .C      ORRS     r6,r6,r5
        0x00000a84:    6086        .`      STR      r6,[r0,#8]
        0x00000a86:    6886        .h      LDR      r6,[r0,#8]
        0x00000a88:    43be        .C      BICS     r6,r6,r7
        0x00000a8a:    2701        .'      MOVS     r7,#1
        0x00000a8c:    433e        >C      ORRS     r6,r6,r7
        0x00000a8e:    6086        .`      STR      r6,[r0,#8]
        0x00000a90:    2602        .&      MOVS     r6,#2
        0x00000a92:    6206        .b      STR      r6,[r0,#0x20]
        0x00000a94:    021e        ..      LSLS     r6,r3,#8
        0x00000a96:    0e36        6.      LSRS     r6,r6,#24
        0x00000a98:    6206        .b      STR      r6,[r0,#0x20]
        0x00000a9a:    041e        ..      LSLS     r6,r3,#16
        0x00000a9c:    0e36        6.      LSRS     r6,r6,#24
        0x00000a9e:    6206        .b      STR      r6,[r0,#0x20]
        0x00000aa0:    b2db        ..      UXTB     r3,r3
        0x00000aa2:    6203        .b      STR      r3,[r0,#0x20]
        0x00000aa4:    4b0a        .K      LDR      r3,[pc,#40] ; [0xad0] = 0x2000002c
        0x00000aa6:    6946        Fi      LDR      r6,[r0,#0x14]
        0x00000aa8:    03b6        ..      LSLS     r6,r6,#14
        0x00000aaa:    d4fc        ..      BMI      0xaa6 ; SpiFlash_NormalPageProgram + 74
        0x00000aac:    5c9e        .\      LDRB     r6,[r3,r2]
        0x00000aae:    6206        .b      STR      r6,[r0,#0x20]
        0x00000ab0:    1c52        R.      ADDS     r2,r2,#1
        0x00000ab2:    428a        .B      CMP      r2,r1
        0x00000ab4:    d3f7        ..      BCC      0xaa6 ; SpiFlash_NormalPageProgram + 74
        0x00000ab6:    6941        Ai      LDR      r1,[r0,#0x14]
        0x00000ab8:    07c9        ..      LSLS     r1,r1,#31
        0x00000aba:    d1fc        ..      BNE      0xab6 ; SpiFlash_NormalPageProgram + 90
        0x00000abc:    6881        .h      LDR      r1,[r0,#8]
        0x00000abe:    43a1        .C      BICS     r1,r1,r4
        0x00000ac0:    4329        )C      ORRS     r1,r1,r5
        0x00000ac2:    6081        .`      STR      r1,[r0,#8]
        0x00000ac4:    f7fffeb6    ....    BL       SPI_ClearRxFIFO ; 0x834
        0x00000ac8:    bdf8        ..      POP      {r3-r7,pc}
    $d
        0x00000aca:    0000        ..      DCW    0
        0x00000acc:    40061000    ...@    DCD    1074139136
        0x00000ad0:    2000002c    ,..     DCD    536870956
    $t
    i.SpiFlash_NormalRead
    SpiFlash_NormalRead
        0x00000ad4:    b570        p.      PUSH     {r4-r6,lr}
        0x00000ad6:    4c17        .L      LDR      r4,[pc,#92] ; [0xb34] = 0x40061000
        0x00000ad8:    460d        .F      MOV      r5,r1
        0x00000ada:    68a1        .h      LDR      r1,[r4,#8]
        0x00000adc:    220c        ."      MOVS     r2,#0xc
        0x00000ade:    4391        .C      BICS     r1,r1,r2
        0x00000ae0:    2201        ."      MOVS     r2,#1
        0x00000ae2:    4311        .C      ORRS     r1,r1,r2
        0x00000ae4:    60a1        .`      STR      r1,[r4,#8]
        0x00000ae6:    2103        .!      MOVS     r1,#3
        0x00000ae8:    6221        !b      STR      r1,[r4,#0x20]
        0x00000aea:    0201        ..      LSLS     r1,r0,#8
        0x00000aec:    0e09        ..      LSRS     r1,r1,#24
        0x00000aee:    6221        !b      STR      r1,[r4,#0x20]
        0x00000af0:    0401        ..      LSLS     r1,r0,#16
        0x00000af2:    0e09        ..      LSRS     r1,r1,#24
        0x00000af4:    6221        !b      STR      r1,[r4,#0x20]
        0x00000af6:    b2c0        ..      UXTB     r0,r0
        0x00000af8:    6220         b      STR      r0,[r4,#0x20]
        0x00000afa:    6960        `i      LDR      r0,[r4,#0x14]
        0x00000afc:    07c0        ..      LSLS     r0,r0,#31
        0x00000afe:    d1fc        ..      BNE      0xafa ; SpiFlash_NormalRead + 38
        0x00000b00:    4620         F      MOV      r0,r4
        0x00000b02:    f7fffe97    ....    BL       SPI_ClearRxFIFO ; 0x834
        0x00000b06:    2200        ."      MOVS     r2,#0
        0x00000b08:    4611        .F      MOV      r1,r2
        0x00000b0a:    4e0b        .N      LDR      r6,[pc,#44] ; [0xb38] = 0x2000012c
        0x00000b0c:    e006        ..      B        0xb1c ; SpiFlash_NormalRead + 72
        0x00000b0e:    6221        !b      STR      r1,[r4,#0x20]
        0x00000b10:    6963        ci      LDR      r3,[r4,#0x14]
        0x00000b12:    07d8        ..      LSLS     r0,r3,#31
        0x00000b14:    d1fc        ..      BNE      0xb10 ; SpiFlash_NormalRead + 60
        0x00000b16:    6b20         k      LDR      r0,[r4,#0x30]
        0x00000b18:    54b0        .T      STRB     r0,[r6,r2]
        0x00000b1a:    1c52        R.      ADDS     r2,r2,#1
        0x00000b1c:    42aa        .B      CMP      r2,r5
        0x00000b1e:    d3f6        ..      BCC      0xb0e ; SpiFlash_NormalRead + 58
        0x00000b20:    6960        `i      LDR      r0,[r4,#0x14]
        0x00000b22:    07c0        ..      LSLS     r0,r0,#31
        0x00000b24:    d1fc        ..      BNE      0xb20 ; SpiFlash_NormalRead + 76
        0x00000b26:    68a0        .h      LDR      r0,[r4,#8]
        0x00000b28:    2108        .!      MOVS     r1,#8
        0x00000b2a:    4388        .C      BICS     r0,r0,r1
        0x00000b2c:    2105        .!      MOVS     r1,#5
        0x00000b2e:    4308        .C      ORRS     r0,r0,r1
        0x00000b30:    60a0        .`      STR      r0,[r4,#8]
        0x00000b32:    bd70        p.      POP      {r4-r6,pc}
    $d
        0x00000b34:    40061000    ...@    DCD    1074139136
        0x00000b38:    2000012c    ,..     DCD    536871212
    $t
    i.SpiFlash_ReadMidDid
    SpiFlash_ReadMidDid
        0x00000b3c:    b50c        ..      PUSH     {r2,r3,lr}
        0x00000b3e:    4912        .I      LDR      r1,[pc,#72] ; [0xb88] = 0x40061000
        0x00000b40:    2000        .       MOVS     r0,#0
        0x00000b42:    688a        .h      LDR      r2,[r1,#8]
        0x00000b44:    230c        .#      MOVS     r3,#0xc
        0x00000b46:    439a        .C      BICS     r2,r2,r3
        0x00000b48:    2301        .#      MOVS     r3,#1
        0x00000b4a:    431a        .C      ORRS     r2,r2,r3
        0x00000b4c:    608a        .`      STR      r2,[r1,#8]
        0x00000b4e:    2290        ."      MOVS     r2,#0x90
        0x00000b50:    620a        .b      STR      r2,[r1,#0x20]
        0x00000b52:    6208        .b      STR      r0,[r1,#0x20]
        0x00000b54:    6208        .b      STR      r0,[r1,#0x20]
        0x00000b56:    6208        .b      STR      r0,[r1,#0x20]
        0x00000b58:    6208        .b      STR      r0,[r1,#0x20]
        0x00000b5a:    6208        .b      STR      r0,[r1,#0x20]
        0x00000b5c:    694a        Ji      LDR      r2,[r1,#0x14]
        0x00000b5e:    07d2        ..      LSLS     r2,r2,#31
        0x00000b60:    d1fc        ..      BNE      0xb5c ; SpiFlash_ReadMidDid + 32
        0x00000b62:    688a        .h      LDR      r2,[r1,#8]
        0x00000b64:    2308        .#      MOVS     r3,#8
        0x00000b66:    439a        .C      BICS     r2,r2,r3
        0x00000b68:    2305        .#      MOVS     r3,#5
        0x00000b6a:    431a        .C      ORRS     r2,r2,r3
        0x00000b6c:    608a        .`      STR      r2,[r1,#8]
        0x00000b6e:    466b        kF      MOV      r3,sp
        0x00000b70:    e003        ..      B        0xb7a ; SpiFlash_ReadMidDid + 62
        0x00000b72:    6b0a        .k      LDR      r2,[r1,#0x30]
        0x00000b74:    541a        .T      STRB     r2,[r3,r0]
        0x00000b76:    1c40        @.      ADDS     r0,r0,#1
        0x00000b78:    b2c0        ..      UXTB     r0,r0
        0x00000b7a:    694a        Ji      LDR      r2,[r1,#0x14]
        0x00000b7c:    05d2        ..      LSLS     r2,r2,#23
        0x00000b7e:    d5f8        ..      BPL      0xb72 ; SpiFlash_ReadMidDid + 54
        0x00000b80:    8898        ..      LDRH     r0,[r3,#4]
        0x00000b82:    ba40        @.      REV16    r0,r0
        0x00000b84:    bd0c        ..      POP      {r2,r3,pc}
    $d
        0x00000b86:    0000        ..      DCW    0
        0x00000b88:    40061000    ...@    DCD    1074139136
    $t
    i.SpiFlash_ReadStatusReg
    SpiFlash_ReadStatusReg
        0x00000b8c:    480b        .H      LDR      r0,[pc,#44] ; [0xbbc] = 0x40061000
        0x00000b8e:    6881        .h      LDR      r1,[r0,#8]
        0x00000b90:    220c        ."      MOVS     r2,#0xc
        0x00000b92:    4391        .C      BICS     r1,r1,r2
        0x00000b94:    2201        ."      MOVS     r2,#1
        0x00000b96:    4311        .C      ORRS     r1,r1,r2
        0x00000b98:    6081        .`      STR      r1,[r0,#8]
        0x00000b9a:    2205        ."      MOVS     r2,#5
        0x00000b9c:    6202        .b      STR      r2,[r0,#0x20]
        0x00000b9e:    2100        .!      MOVS     r1,#0
        0x00000ba0:    6201        .b      STR      r1,[r0,#0x20]
        0x00000ba2:    6941        Ai      LDR      r1,[r0,#0x14]
        0x00000ba4:    07c9        ..      LSLS     r1,r1,#31
        0x00000ba6:    d1fc        ..      BNE      0xba2 ; SpiFlash_ReadStatusReg + 22
        0x00000ba8:    6881        .h      LDR      r1,[r0,#8]
        0x00000baa:    2308        .#      MOVS     r3,#8
        0x00000bac:    4399        .C      BICS     r1,r1,r3
        0x00000bae:    4311        .C      ORRS     r1,r1,r2
        0x00000bb0:    6081        .`      STR      r1,[r0,#8]
        0x00000bb2:    6b01        .k      LDR      r1,[r0,#0x30]
        0x00000bb4:    6b00        .k      LDR      r0,[r0,#0x30]
        0x00000bb6:    b2c0        ..      UXTB     r0,r0
        0x00000bb8:    4770        pG      BX       lr
    $d
        0x00000bba:    0000        ..      DCW    0
        0x00000bbc:    40061000    ...@    DCD    1074139136
    $t
    i.SpiFlash_WaitReady
    SpiFlash_WaitReady
        0x00000bc0:    b500        ..      PUSH     {lr}
        0x00000bc2:    f7ffffe3    ....    BL       SpiFlash_ReadStatusReg ; 0xb8c
        0x00000bc6:    07c0        ..      LSLS     r0,r0,#31
        0x00000bc8:    0fc0        ..      LSRS     r0,r0,#31
        0x00000bca:    d1fa        ..      BNE      0xbc2 ; SpiFlash_WaitReady + 2
        0x00000bcc:    bd00        ..      POP      {pc}
        0x00000bce:    0000        ..      MOVS     r0,r0
    i.SystemCoreClockUpdate
    SystemCoreClockUpdate
        0x00000bd0:    b5f8        ..      PUSH     {r3-r7,lr}
        0x00000bd2:    4d1d        .M      LDR      r5,[pc,#116] ; [0xc48] = 0x40000200
        0x00000bd4:    6928        (i      LDR      r0,[r5,#0x10]
        0x00000bd6:    491c        .I      LDR      r1,[pc,#112] ; [0xc48] = 0x40000200
        0x00000bd8:    0744        D.      LSLS     r4,r0,#29
        0x00000bda:    a01c        ..      ADR      r0,{pc}+0x72 ; 0xc4c
        0x00000bdc:    6800        .h      LDR      r0,[r0,#0]
        0x00000bde:    9000        ..      STR      r0,[sp,#0]
        0x00000be0:    0f64        d.      LSRS     r4,r4,#29
        0x00000be2:    2000        .       MOVS     r0,#0
        0x00000be4:    3140        @1      ADDS     r1,r1,#0x40
        0x00000be6:    6809        .h      LDR      r1,[r1,#0]
        0x00000be8:    2205        ."      MOVS     r2,#5
        0x00000bea:    0412        ..      LSLS     r2,r2,#16
        0x00000bec:    4211        .B      TST      r1,r2
        0x00000bee:    d116        ..      BNE      0xc1e ; SystemCoreClockUpdate + 78
        0x00000bf0:    0308        ..      LSLS     r0,r1,#12
        0x00000bf2:    d501        ..      BPL      0xbf8 ; SystemCoreClockUpdate + 40
        0x00000bf4:    4816        .H      LDR      r0,[pc,#88] ; [0xc50] = 0xb71b00
        0x00000bf6:    e000        ..      B        0xbfa ; SystemCoreClockUpdate + 42
        0x00000bf8:    4816        .H      LDR      r0,[pc,#88] ; [0xc54] = 0x1e84800
        0x00000bfa:    038a        ..      LSLS     r2,r1,#14
        0x00000bfc:    d40f        ..      BMI      0xc1e ; SystemCoreClockUpdate + 78
        0x00000bfe:    040a        ..      LSLS     r2,r1,#16
        0x00000c00:    0f92        ..      LSRS     r2,r2,#30
        0x00000c02:    466b        kF      MOV      r3,sp
        0x00000c04:    5c9b        .\      LDRB     r3,[r3,r2]
        0x00000c06:    05ca        ..      LSLS     r2,r1,#23
        0x00000c08:    0489        ..      LSLS     r1,r1,#18
        0x00000c0a:    0dd2        ..      LSRS     r2,r2,#23
        0x00000c0c:    0ec9        ..      LSRS     r1,r1,#27
        0x00000c0e:    1c89        ..      ADDS     r1,r1,#2
        0x00000c10:    0880        ..      LSRS     r0,r0,#2
        0x00000c12:    1c92        ..      ADDS     r2,r2,#2
        0x00000c14:    4359        YC      MULS     r1,r3,r1
        0x00000c16:    4350        PC      MULS     r0,r2,r0
        0x00000c18:    f7fffa9a    ....    BL       __aeabi_uidiv ; 0x150
        0x00000c1c:    0080        ..      LSLS     r0,r0,#2
        0x00000c1e:    4e0e        .N      LDR      r6,[pc,#56] ; [0xc58] = 0x20000000
        0x00000c20:    2c02        .,      CMP      r4,#2
        0x00000c22:    60b0        .`      STR      r0,[r6,#8]
        0x00000c24:    d002        ..      BEQ      0xc2c ; SystemCoreClockUpdate + 92
        0x00000c26:    490d        .I      LDR      r1,[pc,#52] ; [0xc5c] = 0x1210
        0x00000c28:    00a0        ..      LSLS     r0,r4,#2
        0x00000c2a:    5808        .X      LDR      r0,[r1,r0]
        0x00000c2c:    6a29        )j      LDR      r1,[r5,#0x20]
        0x00000c2e:    0709        ..      LSLS     r1,r1,#28
        0x00000c30:    0f09        ..      LSRS     r1,r1,#28
        0x00000c32:    1c49        I.      ADDS     r1,r1,#1
        0x00000c34:    f7fffa8c    ....    BL       __aeabi_uidiv ; 0x150
        0x00000c38:    4909        .I      LDR      r1,[pc,#36] ; [0xc60] = 0xf4240
        0x00000c3a:    6030        0`      STR      r0,[r6,#0]
        0x00000c3c:    104a        J.      ASRS     r2,r1,#1
        0x00000c3e:    1880        ..      ADDS     r0,r0,r2
        0x00000c40:    f7fffa86    ....    BL       __aeabi_uidiv ; 0x150
        0x00000c44:    6070        p`      STR      r0,[r6,#4]
        0x00000c46:    bdf8        ..      POP      {r3-r7,pc}
    $d
        0x00000c48:    40000200    ...@    DCD    1073742336
        0x00000c4c:    04020201    ....    DCD    67240449
        0x00000c50:    00b71b00    ....    DCD    12000000
        0x00000c54:    01e84800    .H..    DCD    32000000
        0x00000c58:    20000000    ...     DCD    536870912
        0x00000c5c:    00001210    ....    DCD    4624
        0x00000c60:    000f4240    @B..    DCD    1000000
    $t
    i.SystemInit
    SystemInit
        0x00000c64:    b510        ..      PUSH     {r4,lr}
        0x00000c66:    2159        Y!      MOVS     r1,#0x59
        0x00000c68:    480a        .H      LDR      r0,[pc,#40] ; [0xc94] = 0x40000100
        0x00000c6a:    2316        .#      MOVS     r3,#0x16
        0x00000c6c:    2288        ."      MOVS     r2,#0x88
        0x00000c6e:    6001        .`      STR      r1,[r0,#0]
        0x00000c70:    6003        .`      STR      r3,[r0,#0]
        0x00000c72:    6002        .`      STR      r2,[r0,#0]
        0x00000c74:    6804        .h      LDR      r4,[r0,#0]
        0x00000c76:    2c00        .,      CMP      r4,#0
        0x00000c78:    d0f9        ..      BEQ      0xc6e ; SystemInit + 10
        0x00000c7a:    4907        .I      LDR      r1,[pc,#28] ; [0xc98] = 0x40000200
        0x00000c7c:    680b        .h      LDR      r3,[r1,#0]
        0x00000c7e:    2207        ."      MOVS     r2,#7
        0x00000c80:    0512        ..      LSLS     r2,r2,#20
        0x00000c82:    4393        .C      BICS     r3,r3,r2
        0x00000c84:    600b        .`      STR      r3,[r1,#0]
        0x00000c86:    680b        .h      LDR      r3,[r1,#0]
        0x00000c88:    4313        .C      ORRS     r3,r3,r2
        0x00000c8a:    600b        .`      STR      r3,[r1,#0]
        0x00000c8c:    2100        .!      MOVS     r1,#0
        0x00000c8e:    6001        .`      STR      r1,[r0,#0]
        0x00000c90:    bd10        ..      POP      {r4,pc}
    $d
        0x00000c92:    0000        ..      DCW    0
        0x00000c94:    40000100    ...@    DCD    1073742080
        0x00000c98:    40000200    ...@    DCD    1073742336
    $t
    i.UART0_Init
    UART0_Init
        0x00000c9c:    b510        ..      PUSH     {r4,lr}
        0x00000c9e:    2001        .       MOVS     r0,#1
        0x00000ca0:    0780        ..      LSLS     r0,r0,#30
        0x00000ca2:    6bc1        .k      LDR      r1,[r0,#0x3c]
        0x00000ca4:    22ff        ."      MOVS     r2,#0xff
        0x00000ca6:    0412        ..      LSLS     r2,r2,#16
        0x00000ca8:    4391        .C      BICS     r1,r1,r2
        0x00000caa:    63c1        .c      STR      r1,[r0,#0x3c]
        0x00000cac:    6bc1        .k      LDR      r1,[r0,#0x3c]
        0x00000cae:    2233        3"      MOVS     r2,#0x33
        0x00000cb0:    0452        R.      LSLS     r2,r2,#17
        0x00000cb2:    4311        .C      ORRS     r1,r1,r2
        0x00000cb4:    63c1        .c      STR      r1,[r0,#0x3c]
        0x00000cb6:    21e1        .!      MOVS     r1,#0xe1
        0x00000cb8:    0249        I.      LSLS     r1,r1,#9
        0x00000cba:    4802        .H      LDR      r0,[pc,#8] ; [0xcc4] = 0x40070000
        0x00000cbc:    f000f804    ....    BL       UART_Open ; 0xcc8
        0x00000cc0:    bd10        ..      POP      {r4,pc}
    $d
        0x00000cc2:    0000        ..      DCW    0
        0x00000cc4:    40070000    ...@    DCD    1074200576
    $t
    i.UART_Open
    UART_Open
        0x00000cc8:    b5f0        ..      PUSH     {r4-r7,lr}
        0x00000cca:    b087        ..      SUB      sp,sp,#0x1c
        0x00000ccc:    460f        .F      MOV      r7,r1
        0x00000cce:    4604        .F      MOV      r4,r0
        0x00000cd0:    2500        .%      MOVS     r5,#0
        0x00000cd2:    462e        .F      MOV      r6,r5
        0x00000cd4:    2218        ."      MOVS     r2,#0x18
        0x00000cd6:    492e        .I      LDR      r1,[pc,#184] ; [0xd90] = 0x1268
        0x00000cd8:    4668        hF      MOV      r0,sp
        0x00000cda:    f7fffa4f    ..O.    BL       __aeabi_memcpy ; 0x17c
        0x00000cde:    492d        -I      LDR      r1,[pc,#180] ; [0xd94] = 0x40070000
        0x00000ce0:    482d        -H      LDR      r0,[pc,#180] ; [0xd98] = 0x40000200
        0x00000ce2:    4a2e        .J      LDR      r2,[pc,#184] ; [0xd9c] = 0x40072000
        0x00000ce4:    428c        .B      CMP      r4,r1
        0x00000ce6:    d105        ..      BNE      0xcf4 ; UART_Open + 44
        0x00000ce8:    6943        Ci      LDR      r3,[r0,#0x14]
        0x00000cea:    6a00        .j      LDR      r0,[r0,#0x20]
        0x00000cec:    015b        [.      LSLS     r3,r3,#5
        0x00000cee:    0f5d        ].      LSRS     r5,r3,#29
        0x00000cf0:    0a00        ..      LSRS     r0,r0,#8
        0x00000cf2:    e00f        ..      B        0xd14 ; UART_Open + 76
        0x00000cf4:    4b2a        *K      LDR      r3,[pc,#168] ; [0xda0] = 0x40071000
        0x00000cf6:    429c        .B      CMP      r4,r3
        0x00000cf8:    d106        ..      BNE      0xd08 ; UART_Open + 64
        0x00000cfa:    6943        Ci      LDR      r3,[r0,#0x14]
        0x00000cfc:    6a00        .j      LDR      r0,[r0,#0x20]
        0x00000cfe:    005b        [.      LSLS     r3,r3,#1
        0x00000d00:    0f5d        ].      LSRS     r5,r3,#29
        0x00000d02:    0400        ..      LSLS     r0,r0,#16
        0x00000d04:    0f06        ..      LSRS     r6,r0,#28
        0x00000d06:    e007        ..      B        0xd18 ; UART_Open + 80
        0x00000d08:    4294        .B      CMP      r4,r2
        0x00000d0a:    d105        ..      BNE      0xd18 ; UART_Open + 80
        0x00000d0c:    69c3        .i      LDR      r3,[r0,#0x1c]
        0x00000d0e:    6b00        .k      LDR      r0,[r0,#0x30]
        0x00000d10:    015b        [.      LSLS     r3,r3,#5
        0x00000d12:    0f5d        ].      LSRS     r5,r3,#29
        0x00000d14:    0706        ..      LSLS     r6,r0,#28
        0x00000d16:    0f36        6.      LSRS     r6,r6,#28
        0x00000d18:    2000        .       MOVS     r0,#0
        0x00000d1a:    6320         c      STR      r0,[r4,#0x30]
        0x00000d1c:    2003        .       MOVS     r0,#3
        0x00000d1e:    60e0        .`      STR      r0,[r4,#0xc]
        0x00000d20:    68a0        .h      LDR      r0,[r4,#8]
        0x00000d22:    4b20         K      LDR      r3,[pc,#128] ; [0xda4] = 0xfff0ff0f
        0x00000d24:    4018        .@      ANDS     r0,r0,r3
        0x00000d26:    60a0        .`      STR      r0,[r4,#8]
        0x00000d28:    2d01        .-      CMP      r5,#1
        0x00000d2a:    d002        ..      BEQ      0xd32 ; UART_Open + 106
        0x00000d2c:    2d04        .-      CMP      r5,#4
        0x00000d2e:    d004        ..      BEQ      0xd3a ; UART_Open + 114
        0x00000d30:    e00d        ..      B        0xd4e ; UART_Open + 134
        0x00000d32:    f7fffb03    ....    BL       CLK_GetPLLClockFreq ; 0x33c
        0x00000d36:    9001        ..      STR      r0,[sp,#4]
        0x00000d38:    e009        ..      B        0xd4e ; UART_Open + 134
        0x00000d3a:    428c        .B      CMP      r4,r1
        0x00000d3c:    d001        ..      BEQ      0xd42 ; UART_Open + 122
        0x00000d3e:    4294        .B      CMP      r4,r2
        0x00000d40:    d102        ..      BNE      0xd48 ; UART_Open + 128
        0x00000d42:    f7fffadb    ....    BL       CLK_GetPCLK0Freq ; 0x2fc
        0x00000d46:    e001        ..      B        0xd4c ; UART_Open + 132
        0x00000d48:    f7fffae8    ....    BL       CLK_GetPCLK1Freq ; 0x31c
        0x00000d4c:    9004        ..      STR      r0,[sp,#0x10]
        0x00000d4e:    2f00        ./      CMP      r7,#0
        0x00000d50:    d01b        ..      BEQ      0xd8a ; UART_Open + 194
        0x00000d52:    00a9        ..      LSLS     r1,r5,#2
        0x00000d54:    4668        hF      MOV      r0,sp
        0x00000d56:    5840        @X      LDR      r0,[r0,r1]
        0x00000d58:    1c71        q.      ADDS     r1,r6,#1
        0x00000d5a:    f7fff9f9    ....    BL       __aeabi_uidiv ; 0x150
        0x00000d5e:    4605        .F      MOV      r5,r0
        0x00000d60:    0879        y.      LSRS     r1,r7,#1
        0x00000d62:    1840        @.      ADDS     r0,r0,r1
        0x00000d64:    4639        9F      MOV      r1,r7
        0x00000d66:    f7fff9f3    ....    BL       __aeabi_uidiv ; 0x150
        0x00000d6a:    490f        .I      LDR      r1,[pc,#60] ; [0xda8] = 0xffff
        0x00000d6c:    1e80        ..      SUBS     r0,r0,#2
        0x00000d6e:    4288        .B      CMP      r0,r1
        0x00000d70:    d907        ..      BLS      0xd82 ; UART_Open + 186
        0x00000d72:    00f9        ..      LSLS     r1,r7,#3
        0x00000d74:    1868        h.      ADDS     r0,r5,r1
        0x00000d76:    4639        9F      MOV      r1,r7
        0x00000d78:    f7fff9ea    ....    BL       __aeabi_uidiv ; 0x150
        0x00000d7c:    0900        ..      LSRS     r0,r0,#4
        0x00000d7e:    1e80        ..      SUBS     r0,r0,#2
        0x00000d80:    e002        ..      B        0xd88 ; UART_Open + 192
        0x00000d82:    2103        .!      MOVS     r1,#3
        0x00000d84:    0709        ..      LSLS     r1,r1,#28
        0x00000d86:    4308        .C      ORRS     r0,r0,r1
        0x00000d88:    6260        `b      STR      r0,[r4,#0x24]
        0x00000d8a:    b007        ..      ADD      sp,sp,#0x1c
        0x00000d8c:    bdf0        ..      POP      {r4-r7,pc}
    $d
        0x00000d8e:    0000        ..      DCW    0
        0x00000d90:    00001268    h...    DCD    4712
        0x00000d94:    40070000    ...@    DCD    1074200576
        0x00000d98:    40000200    ...@    DCD    1073742336
        0x00000d9c:    40072000    . .@    DCD    1074208768
        0x00000da0:    40071000    ...@    DCD    1074204672
        0x00000da4:    fff0ff0f    ....    DCD    4293984015
        0x00000da8:    0000ffff    ....    DCD    65535
    $t
    i.__0printf$5
    __0printf$5
    __1printf$5
    __2printf
        0x00000dac:    b40f        ..      PUSH     {r0-r3}
        0x00000dae:    b510        ..      PUSH     {r4,lr}
        0x00000db0:    a903        ..      ADD      r1,sp,#0xc
        0x00000db2:    4b04        .K      LDR      r3,[pc,#16] ; [0xdc4] = 0x10c1
        0x00000db4:    4a04        .J      LDR      r2,[pc,#16] ; [0xdc8] = 0x2000000c
        0x00000db6:    9802        ..      LDR      r0,[sp,#8]
        0x00000db8:    f000f818    ....    BL       _printf_core ; 0xdec
        0x00000dbc:    bc10        ..      POP      {r4}
        0x00000dbe:    bc08        ..      POP      {r3}
        0x00000dc0:    b004        ..      ADD      sp,sp,#0x10
        0x00000dc2:    4718        .G      BX       r3
    $d
        0x00000dc4:    000010c1    ....    DCD    4289
        0x00000dc8:    2000000c    ...     DCD    536870924
    $t
    i.__scatterload_copy
    __scatterload_copy
        0x00000dcc:    e002        ..      B        0xdd4 ; __scatterload_copy + 8
        0x00000dce:    c808        ..      LDM      r0!,{r3}
        0x00000dd0:    1f12        ..      SUBS     r2,r2,#4
        0x00000dd2:    c108        ..      STM      r1!,{r3}
        0x00000dd4:    2a00        .*      CMP      r2,#0
        0x00000dd6:    d1fa        ..      BNE      0xdce ; __scatterload_copy + 2
        0x00000dd8:    4770        pG      BX       lr
    i.__scatterload_null
    __scatterload_null
        0x00000dda:    4770        pG      BX       lr
    i.__scatterload_zeroinit
    __scatterload_zeroinit
        0x00000ddc:    2000        .       MOVS     r0,#0
        0x00000dde:    e001        ..      B        0xde4 ; __scatterload_zeroinit + 8
        0x00000de0:    c101        ..      STM      r1!,{r0}
        0x00000de2:    1f12        ..      SUBS     r2,r2,#4
        0x00000de4:    2a00        .*      CMP      r2,#0
        0x00000de6:    d1fb        ..      BNE      0xde0 ; __scatterload_zeroinit + 4
        0x00000de8:    4770        pG      BX       lr
        0x00000dea:    0000        ..      MOVS     r0,r0
    i._printf_core
    _printf_core
        0x00000dec:    b5ff        ..      PUSH     {r0-r7,lr}
        0x00000dee:    b08f        ..      SUB      sp,sp,#0x3c
        0x00000df0:    460f        .F      MOV      r7,r1
        0x00000df2:    4604        .F      MOV      r4,r0
        0x00000df4:    2600        .&      MOVS     r6,#0
        0x00000df6:    e006        ..      B        0xe06 ; _printf_core + 26
        0x00000df8:    2825        %(      CMP      r0,#0x25
        0x00000dfa:    d00a        ..      BEQ      0xe12 ; _printf_core + 38
        0x00000dfc:    9a12        ..      LDR      r2,[sp,#0x48]
        0x00000dfe:    9911        ..      LDR      r1,[sp,#0x44]
        0x00000e00:    4790        .G      BLX      r2
        0x00000e02:    1c64        d.      ADDS     r4,r4,#1
        0x00000e04:    1c76        v.      ADDS     r6,r6,#1
        0x00000e06:    7820         x      LDRB     r0,[r4,#0]
        0x00000e08:    2800        .(      CMP      r0,#0
        0x00000e0a:    d1f5        ..      BNE      0xdf8 ; _printf_core + 12
        0x00000e0c:    4630        0F      MOV      r0,r6
        0x00000e0e:    b013        ..      ADD      sp,sp,#0x4c
        0x00000e10:    bdf0        ..      POP      {r4-r7,pc}
        0x00000e12:    2500        .%      MOVS     r5,#0
        0x00000e14:    2101        .!      MOVS     r1,#1
        0x00000e16:    4a9f        .J      LDR      r2,[pc,#636] ; [0x1094] = 0x12809
        0x00000e18:    9500        ..      STR      r5,[sp,#0]
        0x00000e1a:    e000        ..      B        0xe1e ; _printf_core + 50
        0x00000e1c:    4305        .C      ORRS     r5,r5,r0
        0x00000e1e:    1c64        d.      ADDS     r4,r4,#1
        0x00000e20:    7823        #x      LDRB     r3,[r4,#0]
        0x00000e22:    4608        .F      MOV      r0,r1
        0x00000e24:    3b20         ;      SUBS     r3,r3,#0x20
        0x00000e26:    4098        .@      LSLS     r0,r0,r3
        0x00000e28:    4210        .B      TST      r0,r2
        0x00000e2a:    d1f7        ..      BNE      0xe1c ; _printf_core + 48
        0x00000e2c:    7820         x      LDRB     r0,[r4,#0]
        0x00000e2e:    282e        .(      CMP      r0,#0x2e
        0x00000e30:    d115        ..      BNE      0xe5e ; _printf_core + 114
        0x00000e32:    2004        .       MOVS     r0,#4
        0x00000e34:    4305        .C      ORRS     r5,r5,r0
        0x00000e36:    7860        `x      LDRB     r0,[r4,#1]
        0x00000e38:    1c64        d.      ADDS     r4,r4,#1
        0x00000e3a:    282a        *(      CMP      r0,#0x2a
        0x00000e3c:    d10a        ..      BNE      0xe54 ; _printf_core + 104
        0x00000e3e:    cf01        ..      LDM      r7!,{r0}
        0x00000e40:    1c64        d.      ADDS     r4,r4,#1
        0x00000e42:    9000        ..      STR      r0,[sp,#0]
        0x00000e44:    e00b        ..      B        0xe5e ; _printf_core + 114
        0x00000e46:    9900        ..      LDR      r1,[sp,#0]
        0x00000e48:    220a        ."      MOVS     r2,#0xa
        0x00000e4a:    4351        QC      MULS     r1,r2,r1
        0x00000e4c:    3930        09      SUBS     r1,r1,#0x30
        0x00000e4e:    1840        @.      ADDS     r0,r0,r1
        0x00000e50:    1c64        d.      ADDS     r4,r4,#1
        0x00000e52:    9000        ..      STR      r0,[sp,#0]
        0x00000e54:    7820         x      LDRB     r0,[r4,#0]
        0x00000e56:    4601        .F      MOV      r1,r0
        0x00000e58:    3930        09      SUBS     r1,r1,#0x30
        0x00000e5a:    2909        .)      CMP      r1,#9
        0x00000e5c:    d9f3        ..      BLS      0xe46 ; _printf_core + 90
        0x00000e5e:    7820         x      LDRB     r0,[r4,#0]
        0x00000e60:    286c        l(      CMP      r0,#0x6c
        0x00000e62:    d00e        ..      BEQ      0xe82 ; _printf_core + 150
        0x00000e64:    dc04        ..      BGT      0xe70 ; _printf_core + 132
        0x00000e66:    284c        L(      CMP      r0,#0x4c
        0x00000e68:    d013        ..      BEQ      0xe92 ; _printf_core + 166
        0x00000e6a:    286a        j(      CMP      r0,#0x6a
        0x00000e6c:    d112        ..      BNE      0xe94 ; _printf_core + 168
        0x00000e6e:    e004        ..      B        0xe7a ; _printf_core + 142
        0x00000e70:    2874        t(      CMP      r0,#0x74
        0x00000e72:    d00e        ..      BEQ      0xe92 ; _printf_core + 166
        0x00000e74:    287a        z(      CMP      r0,#0x7a
        0x00000e76:    d10d        ..      BNE      0xe94 ; _printf_core + 168
        0x00000e78:    e00b        ..      B        0xe92 ; _printf_core + 166
        0x00000e7a:    2001        .       MOVS     r0,#1
        0x00000e7c:    0540        @.      LSLS     r0,r0,#21
        0x00000e7e:    4305        .C      ORRS     r5,r5,r0
        0x00000e80:    e007        ..      B        0xe92 ; _printf_core + 166
        0x00000e82:    2101        .!      MOVS     r1,#1
        0x00000e84:    0509        ..      LSLS     r1,r1,#20
        0x00000e86:    7862        bx      LDRB     r2,[r4,#1]
        0x00000e88:    430d        .C      ORRS     r5,r5,r1
        0x00000e8a:    4282        .B      CMP      r2,r0
        0x00000e8c:    d101        ..      BNE      0xe92 ; _printf_core + 166
        0x00000e8e:    186d        m.      ADDS     r5,r5,r1
        0x00000e90:    1c64        d.      ADDS     r4,r4,#1
        0x00000e92:    1c64        d.      ADDS     r4,r4,#1
        0x00000e94:    7820         x      LDRB     r0,[r4,#0]
        0x00000e96:    2869        i(      CMP      r0,#0x69
        0x00000e98:    d049        I.      BEQ      0xf2e ; _printf_core + 322
        0x00000e9a:    dc08        ..      BGT      0xeae ; _printf_core + 194
        0x00000e9c:    2800        .(      CMP      r0,#0
        0x00000e9e:    d0b5        ..      BEQ      0xe0c ; _printf_core + 32
        0x00000ea0:    2858        X(      CMP      r0,#0x58
        0x00000ea2:    d06c        l.      BEQ      0xf7e ; _printf_core + 402
        0x00000ea4:    2863        c(      CMP      r0,#0x63
        0x00000ea6:    d00f        ..      BEQ      0xec8 ; _printf_core + 220
        0x00000ea8:    2864        d(      CMP      r0,#0x64
        0x00000eaa:    d108        ..      BNE      0xebe ; _printf_core + 210
        0x00000eac:    e03f        ?.      B        0xf2e ; _printf_core + 322
        0x00000eae:    2870        p(      CMP      r0,#0x70
        0x00000eb0:    d06a        j.      BEQ      0xf88 ; _printf_core + 412
        0x00000eb2:    2873        s(      CMP      r0,#0x73
        0x00000eb4:    d011        ..      BEQ      0xeda ; _printf_core + 238
        0x00000eb6:    2875        u(      CMP      r0,#0x75
        0x00000eb8:    d05f        _.      BEQ      0xf7a ; _printf_core + 398
        0x00000eba:    2878        x(      CMP      r0,#0x78
        0x00000ebc:    d05f        _.      BEQ      0xf7e ; _printf_core + 402
        0x00000ebe:    9a12        ..      LDR      r2,[sp,#0x48]
        0x00000ec0:    9911        ..      LDR      r1,[sp,#0x44]
        0x00000ec2:    4790        .G      BLX      r2
        0x00000ec4:    1c76        v.      ADDS     r6,r6,#1
        0x00000ec6:    e0e3        ..      B        0x1090 ; _printf_core + 676
        0x00000ec8:    7838        8x      LDRB     r0,[r7,#0]
        0x00000eca:    4669        iF      MOV      r1,sp
        0x00000ecc:    7208        .r      STRB     r0,[r1,#8]
        0x00000ece:    2000        .       MOVS     r0,#0
        0x00000ed0:    7248        Hr      STRB     r0,[r1,#9]
        0x00000ed2:    a802        ..      ADD      r0,sp,#8
        0x00000ed4:    9001        ..      STR      r0,[sp,#4]
        0x00000ed6:    2001        .       MOVS     r0,#1
        0x00000ed8:    e003        ..      B        0xee2 ; _printf_core + 246
        0x00000eda:    6838        8h      LDR      r0,[r7,#0]
        0x00000edc:    9001        ..      STR      r0,[sp,#4]
        0x00000ede:    2000        .       MOVS     r0,#0
        0x00000ee0:    43c0        .C      MVNS     r0,r0
        0x00000ee2:    1d3f        ?.      ADDS     r7,r7,#4
        0x00000ee4:    0769        i.      LSLS     r1,r5,#29
        0x00000ee6:    d50c        ..      BPL      0xf02 ; _printf_core + 278
        0x00000ee8:    2500        .%      MOVS     r5,#0
        0x00000eea:    e000        ..      B        0xeee ; _printf_core + 258
        0x00000eec:    1c6d        m.      ADDS     r5,r5,#1
        0x00000eee:    9900        ..      LDR      r1,[sp,#0]
        0x00000ef0:    428d        .B      CMP      r5,r1
        0x00000ef2:    da0f        ..      BGE      0xf14 ; _printf_core + 296
        0x00000ef4:    4285        .B      CMP      r5,r0
        0x00000ef6:    dbf9        ..      BLT      0xeec ; _printf_core + 256
        0x00000ef8:    9901        ..      LDR      r1,[sp,#4]
        0x00000efa:    5d49        I]      LDRB     r1,[r1,r5]
        0x00000efc:    2900        .)      CMP      r1,#0
        0x00000efe:    d1f5        ..      BNE      0xeec ; _printf_core + 256
        0x00000f00:    e008        ..      B        0xf14 ; _printf_core + 296
        0x00000f02:    2500        .%      MOVS     r5,#0
        0x00000f04:    e000        ..      B        0xf08 ; _printf_core + 284
        0x00000f06:    1c6d        m.      ADDS     r5,r5,#1
        0x00000f08:    4285        .B      CMP      r5,r0
        0x00000f0a:    dbfc        ..      BLT      0xf06 ; _printf_core + 282
        0x00000f0c:    9901        ..      LDR      r1,[sp,#4]
        0x00000f0e:    5d49        I]      LDRB     r1,[r1,r5]
        0x00000f10:    2900        .)      CMP      r1,#0
        0x00000f12:    d1f8        ..      BNE      0xf06 ; _printf_core + 282
        0x00000f14:    1976        v.      ADDS     r6,r6,r5
        0x00000f16:    e007        ..      B        0xf28 ; _printf_core + 316
        0x00000f18:    9801        ..      LDR      r0,[sp,#4]
        0x00000f1a:    9901        ..      LDR      r1,[sp,#4]
        0x00000f1c:    7800        .x      LDRB     r0,[r0,#0]
        0x00000f1e:    1c49        I.      ADDS     r1,r1,#1
        0x00000f20:    9101        ..      STR      r1,[sp,#4]
        0x00000f22:    9a12        ..      LDR      r2,[sp,#0x48]
        0x00000f24:    9911        ..      LDR      r1,[sp,#0x44]
        0x00000f26:    4790        .G      BLX      r2
        0x00000f28:    1e6d        m.      SUBS     r5,r5,#1
        0x00000f2a:    d2f5        ..      BCS      0xf18 ; _printf_core + 300
        0x00000f2c:    e0b0        ..      B        0x1090 ; _printf_core + 676
        0x00000f2e:    200a        .       MOVS     r0,#0xa
        0x00000f30:    9002        ..      STR      r0,[sp,#8]
        0x00000f32:    2100        .!      MOVS     r1,#0
        0x00000f34:    0268        h.      LSLS     r0,r5,#9
        0x00000f36:    0f40        @.      LSRS     r0,r0,#29
        0x00000f38:    9103        ..      STR      r1,[sp,#0xc]
        0x00000f3a:    2802        .(      CMP      r0,#2
        0x00000f3c:    d00c        ..      BEQ      0xf58 ; _printf_core + 364
        0x00000f3e:    cf01        ..      LDM      r7!,{r0}
        0x00000f40:    17c1        ..      ASRS     r1,r0,#31
        0x00000f42:    4684        .F      MOV      r12,r0
        0x00000f44:    2900        .)      CMP      r1,#0
        0x00000f46:    da0d        ..      BGE      0xf64 ; _printf_core + 376
        0x00000f48:    4660        `F      MOV      r0,r12
        0x00000f4a:    460a        .F      MOV      r2,r1
        0x00000f4c:    4240        @B      RSBS     r0,r0,#0
        0x00000f4e:    2100        .!      MOVS     r1,#0
        0x00000f50:    4191        .A      SBCS     r1,r1,r2
        0x00000f52:    4684        .F      MOV      r12,r0
        0x00000f54:    202d        -       MOVS     r0,#0x2d
        0x00000f56:    e008        ..      B        0xf6a ; _printf_core + 382
        0x00000f58:    1dff        ..      ADDS     r7,r7,#7
        0x00000f5a:    08ff        ..      LSRS     r7,r7,#3
        0x00000f5c:    00ff        ..      LSLS     r7,r7,#3
        0x00000f5e:    cf03        ..      LDM      r7!,{r0,r1}
        0x00000f60:    4684        .F      MOV      r12,r0
        0x00000f62:    e7ef        ..      B        0xf44 ; _printf_core + 344
        0x00000f64:    0528        (.      LSLS     r0,r5,#20
        0x00000f66:    d504        ..      BPL      0xf72 ; _printf_core + 390
        0x00000f68:    202b        +       MOVS     r0,#0x2b
        0x00000f6a:    466a        jF      MOV      r2,sp
        0x00000f6c:    7410        .t      STRB     r0,[r2,#0x10]
        0x00000f6e:    2001        .       MOVS     r0,#1
        0x00000f70:    e03d        =.      B        0xfee ; _printf_core + 514
        0x00000f72:    07e8        ..      LSLS     r0,r5,#31
        0x00000f74:    d03b        ;.      BEQ      0xfee ; _printf_core + 514
        0x00000f76:    2020                MOVS     r0,#0x20
        0x00000f78:    e7f7        ..      B        0xf6a ; _printf_core + 382
        0x00000f7a:    200a        .       MOVS     r0,#0xa
        0x00000f7c:    e000        ..      B        0xf80 ; _printf_core + 404
        0x00000f7e:    2010        .       MOVS     r0,#0x10
        0x00000f80:    2100        .!      MOVS     r1,#0
        0x00000f82:    9103        ..      STR      r1,[sp,#0xc]
        0x00000f84:    9002        ..      STR      r0,[sp,#8]
        0x00000f86:    e007        ..      B        0xf98 ; _printf_core + 428
        0x00000f88:    2010        .       MOVS     r0,#0x10
        0x00000f8a:    9002        ..      STR      r0,[sp,#8]
        0x00000f8c:    2100        .!      MOVS     r1,#0
        0x00000f8e:    2004        .       MOVS     r0,#4
        0x00000f90:    4305        .C      ORRS     r5,r5,r0
        0x00000f92:    2008        .       MOVS     r0,#8
        0x00000f94:    9103        ..      STR      r1,[sp,#0xc]
        0x00000f96:    9000        ..      STR      r0,[sp,#0]
        0x00000f98:    0268        h.      LSLS     r0,r5,#9
        0x00000f9a:    0f40        @.      LSRS     r0,r0,#29
        0x00000f9c:    2802        .(      CMP      r0,#2
        0x00000f9e:    d011        ..      BEQ      0xfc4 ; _printf_core + 472
        0x00000fa0:    cf01        ..      LDM      r7!,{r0}
        0x00000fa2:    2100        .!      MOVS     r1,#0
        0x00000fa4:    4684        .F      MOV      r12,r0
        0x00000fa6:    2000        .       MOVS     r0,#0
        0x00000fa8:    900d        ..      STR      r0,[sp,#0x34]
        0x00000faa:    0728        (.      LSLS     r0,r5,#28
        0x00000fac:    d520         .      BPL      0xff0 ; _printf_core + 516
        0x00000fae:    7820         x      LDRB     r0,[r4,#0]
        0x00000fb0:    4686        .F      MOV      lr,r0
        0x00000fb2:    2870        p(      CMP      r0,#0x70
        0x00000fb4:    d00c        ..      BEQ      0xfd0 ; _printf_core + 484
        0x00000fb6:    9a02        ..      LDR      r2,[sp,#8]
        0x00000fb8:    2010        .       MOVS     r0,#0x10
        0x00000fba:    9b03        ..      LDR      r3,[sp,#0xc]
        0x00000fbc:    4042        B@      EORS     r2,r2,r0
        0x00000fbe:    431a        .C      ORRS     r2,r2,r3
        0x00000fc0:    d00c        ..      BEQ      0xfdc ; _printf_core + 496
        0x00000fc2:    e015        ..      B        0xff0 ; _printf_core + 516
        0x00000fc4:    1dff        ..      ADDS     r7,r7,#7
        0x00000fc6:    08ff        ..      LSRS     r7,r7,#3
        0x00000fc8:    00ff        ..      LSLS     r7,r7,#3
        0x00000fca:    cf03        ..      LDM      r7!,{r0,r1}
        0x00000fcc:    4684        .F      MOV      r12,r0
        0x00000fce:    e7ea        ..      B        0xfa6 ; _printf_core + 442
        0x00000fd0:    2040        @       MOVS     r0,#0x40
        0x00000fd2:    466a        jF      MOV      r2,sp
        0x00000fd4:    7410        .t      STRB     r0,[r2,#0x10]
        0x00000fd6:    2001        .       MOVS     r0,#1
        0x00000fd8:    900d        ..      STR      r0,[sp,#0x34]
        0x00000fda:    e00c        ..      B        0xff6 ; _printf_core + 522
        0x00000fdc:    4660        `F      MOV      r0,r12
        0x00000fde:    4308        .C      ORRS     r0,r0,r1
        0x00000fe0:    d006        ..      BEQ      0xff0 ; _printf_core + 516
        0x00000fe2:    2030        0       MOVS     r0,#0x30
        0x00000fe4:    466a        jF      MOV      r2,sp
        0x00000fe6:    7410        .t      STRB     r0,[r2,#0x10]
        0x00000fe8:    4670        pF      MOV      r0,lr
        0x00000fea:    7450        Pt      STRB     r0,[r2,#0x11]
        0x00000fec:    2002        .       MOVS     r0,#2
        0x00000fee:    900d        ..      STR      r0,[sp,#0x34]
        0x00000ff0:    7820         x      LDRB     r0,[r4,#0]
        0x00000ff2:    2858        X(      CMP      r0,#0x58
        0x00000ff4:    d004        ..      BEQ      0x1000 ; _printf_core + 532
        0x00000ff6:    a028        (.      ADR      r0,{pc}+0xa2 ; 0x1098
        0x00000ff8:    9001        ..      STR      r0,[sp,#4]
        0x00000ffa:    a80d        ..      ADD      r0,sp,#0x34
        0x00000ffc:    900e        ..      STR      r0,[sp,#0x38]
        0x00000ffe:    e00d        ..      B        0x101c ; _printf_core + 560
        0x00001000:    a02a        *.      ADR      r0,{pc}+0xac ; 0x10ac
        0x00001002:    e7f9        ..      B        0xff8 ; _printf_core + 524
        0x00001004:    4660        `F      MOV      r0,r12
        0x00001006:    9b03        ..      LDR      r3,[sp,#0xc]
        0x00001008:    9a02        ..      LDR      r2,[sp,#8]
        0x0000100a:    f7fff8c9    ....    BL       __aeabi_uldivmod ; 0x1a0
        0x0000100e:    9b01        ..      LDR      r3,[sp,#4]
        0x00001010:    4684        .F      MOV      r12,r0
        0x00001012:    5c9b        .\      LDRB     r3,[r3,r2]
        0x00001014:    9a0e        ..      LDR      r2,[sp,#0x38]
        0x00001016:    1e52        R.      SUBS     r2,r2,#1
        0x00001018:    920e        ..      STR      r2,[sp,#0x38]
        0x0000101a:    7013        .p      STRB     r3,[r2,#0]
        0x0000101c:    4660        `F      MOV      r0,r12
        0x0000101e:    4308        .C      ORRS     r0,r0,r1
        0x00001020:    d1f0        ..      BNE      0x1004 ; _printf_core + 536
        0x00001022:    980e        ..      LDR      r0,[sp,#0x38]
        0x00001024:    a905        ..      ADD      r1,sp,#0x14
        0x00001026:    1a08        ..      SUBS     r0,r1,r0
        0x00001028:    3020         0      ADDS     r0,r0,#0x20
        0x0000102a:    9001        ..      STR      r0,[sp,#4]
        0x0000102c:    0768        h.      LSLS     r0,r5,#29
        0x0000102e:    d401        ..      BMI      0x1034 ; _printf_core + 584
        0x00001030:    2001        .       MOVS     r0,#1
        0x00001032:    9000        ..      STR      r0,[sp,#0]
        0x00001034:    9900        ..      LDR      r1,[sp,#0]
        0x00001036:    9801        ..      LDR      r0,[sp,#4]
        0x00001038:    4281        .B      CMP      r1,r0
        0x0000103a:    dd01        ..      BLE      0x1040 ; _printf_core + 596
        0x0000103c:    1a08        ..      SUBS     r0,r1,r0
        0x0000103e:    e000        ..      B        0x1042 ; _printf_core + 598
        0x00001040:    2000        .       MOVS     r0,#0
        0x00001042:    2500        .%      MOVS     r5,#0
        0x00001044:    9000        ..      STR      r0,[sp,#0]
        0x00001046:    e006        ..      B        0x1056 ; _printf_core + 618
        0x00001048:    a804        ..      ADD      r0,sp,#0x10
        0x0000104a:    9a12        ..      LDR      r2,[sp,#0x48]
        0x0000104c:    5d40        @]      LDRB     r0,[r0,r5]
        0x0000104e:    9911        ..      LDR      r1,[sp,#0x44]
        0x00001050:    4790        .G      BLX      r2
        0x00001052:    1c6d        m.      ADDS     r5,r5,#1
        0x00001054:    1c76        v.      ADDS     r6,r6,#1
        0x00001056:    980d        ..      LDR      r0,[sp,#0x34]
        0x00001058:    4285        .B      CMP      r5,r0
        0x0000105a:    dbf5        ..      BLT      0x1048 ; _printf_core + 604
        0x0000105c:    e004        ..      B        0x1068 ; _printf_core + 636
        0x0000105e:    9a12        ..      LDR      r2,[sp,#0x48]
        0x00001060:    2030        0       MOVS     r0,#0x30
        0x00001062:    9911        ..      LDR      r1,[sp,#0x44]
        0x00001064:    4790        .G      BLX      r2
        0x00001066:    1c76        v.      ADDS     r6,r6,#1
        0x00001068:    9900        ..      LDR      r1,[sp,#0]
        0x0000106a:    1e48        H.      SUBS     r0,r1,#1
        0x0000106c:    9000        ..      STR      r0,[sp,#0]
        0x0000106e:    2900        .)      CMP      r1,#0
        0x00001070:    dcf5        ..      BGT      0x105e ; _printf_core + 626
        0x00001072:    e008        ..      B        0x1086 ; _printf_core + 666
        0x00001074:    980e        ..      LDR      r0,[sp,#0x38]
        0x00001076:    990e        ..      LDR      r1,[sp,#0x38]
        0x00001078:    7800        .x      LDRB     r0,[r0,#0]
        0x0000107a:    1c49        I.      ADDS     r1,r1,#1
        0x0000107c:    910e        ..      STR      r1,[sp,#0x38]
        0x0000107e:    9a12        ..      LDR      r2,[sp,#0x48]
        0x00001080:    9911        ..      LDR      r1,[sp,#0x44]
        0x00001082:    4790        .G      BLX      r2
        0x00001084:    1c76        v.      ADDS     r6,r6,#1
        0x00001086:    9901        ..      LDR      r1,[sp,#4]
        0x00001088:    1e48        H.      SUBS     r0,r1,#1
        0x0000108a:    9001        ..      STR      r0,[sp,#4]
        0x0000108c:    2900        .)      CMP      r1,#0
        0x0000108e:    dcf1        ..      BGT      0x1074 ; _printf_core + 648
        0x00001090:    1c64        d.      ADDS     r4,r4,#1
        0x00001092:    e6b8        ..      B        0xe06 ; _printf_core + 26
    $d
        0x00001094:    00012809    .(..    DCD    75785
        0x00001098:    33323130    0123    DCD    858927408
        0x0000109c:    37363534    4567    DCD    926299444
        0x000010a0:    62613938    89ab    DCD    1650538808
        0x000010a4:    66656463    cdef    DCD    1717920867
        0x000010a8:    00000000    ....    DCD    0
        0x000010ac:    33323130    0123    DCD    858927408
        0x000010b0:    37363534    4567    DCD    926299444
        0x000010b4:    42413938    89AB    DCD    1111570744
        0x000010b8:    46454443    CDEF    DCD    1178944579
        0x000010bc:    00000000    ....    DCD    0
    $t
    i.fputc
    fputc
        0x000010c0:    b510        ..      PUSH     {r4,lr}
        0x000010c2:    4604        .F      MOV      r4,r0
        0x000010c4:    f7fffc94    ....    BL       SendChar ; 0x9f0
        0x000010c8:    4620         F      MOV      r0,r4
        0x000010ca:    bd10        ..      POP      {r4,pc}
    i.main
    main
        0x000010cc:    f7fffc4c    ..L.    BL       SYS_Init ; 0x968
        0x000010d0:    f7fffde4    ....    BL       UART0_Init ; 0xc9c
        0x000010d4:    f7fffb90    ....    BL       SPI0_Init ; 0x7f8
        0x000010d8:    2201        ."      MOVS     r2,#1
        0x000010da:    210c        .!      MOVS     r1,#0xc
        0x000010dc:    4811        .H      LDR      r0,[pc,#68] ; [0x1124] = 0x40004040
        0x000010de:    f7fff9fb    ....    BL       GPIO_SetMode ; 0x4d8
        0x000010e2:    4811        .H      LDR      r0,[pc,#68] ; [0x1128] = 0x40004840
        0x000010e4:    2101        .!      MOVS     r1,#1
        0x000010e6:    6081        .`      STR      r1,[r0,#8]
        0x000010e8:    60c1        .`      STR      r1,[r0,#0xc]
        0x000010ea:    f7fffa33    ..3.    BL       I2C0_Init ; 0x554
        0x000010ee:    490f        .I      LDR      r1,[pc,#60] ; [0x112c] = 0x40080000
        0x000010f0:    6808        .h      LDR      r0,[r1,#0]
        0x000010f2:    223c        <"      MOVS     r2,#0x3c
        0x000010f4:    4390        .C      BICS     r0,r0,r2
        0x000010f6:    300c        .0      ADDS     r0,r0,#0xc
        0x000010f8:    6008        .`      STR      r0,[r1,#0]
        0x000010fa:    f7fffd1f    ....    BL       SpiFlash_ReadMidDid ; 0xb3c
        0x000010fe:    490c        .I      LDR      r1,[pc,#48] ; [0x1130] = 0xef16
        0x00001100:    4288        .B      CMP      r0,r1
        0x00001102:    d004        ..      BEQ      0x110e ; main + 66
        0x00001104:    4601        .F      MOV      r1,r0
        0x00001106:    a00b        ..      ADR      r0,{pc}+0x2e ; 0x1134
        0x00001108:    f7fffe50    ..P.    BL       __0printf$5 ; 0xdac
        0x0000110c:    e7fe        ..      B        0x110c ; main + 64
        0x0000110e:    a00d        ..      ADR      r0,{pc}+0x36 ; 0x1144
        0x00001110:    f7fffe4c    ..L.    BL       __0printf$5 ; 0xdac
        0x00001114:    f7fffc7c    ..|.    BL       SpiFlash_ChipErase ; 0xa10
        0x00001118:    f7fffd52    ..R.    BL       SpiFlash_WaitReady ; 0xbc0
        0x0000111c:    a010        ..      ADR      r0,{pc}+0x44 ; 0x1160
        0x0000111e:    f7fffe45    ..E.    BL       __0printf$5 ; 0xdac
        0x00001122:    e7fe        ..      B        0x1122 ; main + 86
    $d
        0x00001124:    40004040    @@.@    DCD    1073758272
        0x00001128:    40004840    @H.@    DCD    1073760320
        0x0000112c:    40080000    ...@    DCD    1074266112
        0x00001130:    0000ef16    ....    DCD    61206
        0x00001134:    6e6f7257    Wron    DCD    1852797527
        0x00001138:    44492067    g ID    DCD    1145643111
        0x0000113c:    7830202c    , 0x    DCD    2016419884
        0x00001140:    000a7825    %x..    DCD    686117
        0x00001144:    73616c46    Flas    DCD    1935764550
        0x00001148:    6f662068    h fo    DCD    1868963944
        0x0000114c:    3a646e75    und:    DCD    979660405
        0x00001150:    35325720     W25    DCD    892491552
        0x00001154:    20323351    Q32     DCD    540160849
        0x00001158:    0a2e2e2e    ....    DCD    170798638
        0x0000115c:    00000000    ....    DCD    0
        0x00001160:    5d4b4f5b    [OK]    DCD    1565216603
        0x00001164:    0000000a    ....    DCD    10
    $t
    i.stackDump
    stackDump
        0x00001168:    b510        ..      PUSH     {r4,lr}
        0x0000116a:    4604        .F      MOV      r4,r0
        0x0000116c:    6801        .h      LDR      r1,[r0,#0]
        0x0000116e:    a010        ..      ADR      r0,{pc}+0x42 ; 0x11b0
        0x00001170:    f7fffe1c    ....    BL       __0printf$5 ; 0xdac
        0x00001174:    a011        ..      ADR      r0,{pc}+0x48 ; 0x11bc
        0x00001176:    6861        ah      LDR      r1,[r4,#4]
        0x00001178:    f7fffe18    ....    BL       __0printf$5 ; 0xdac
        0x0000117c:    a012        ..      ADR      r0,{pc}+0x4c ; 0x11c8
        0x0000117e:    68a1        .h      LDR      r1,[r4,#8]
        0x00001180:    f7fffe14    ....    BL       __0printf$5 ; 0xdac
        0x00001184:    a013        ..      ADR      r0,{pc}+0x50 ; 0x11d4
        0x00001186:    68e1        .h      LDR      r1,[r4,#0xc]
        0x00001188:    f7fffe10    ....    BL       __0printf$5 ; 0xdac
        0x0000118c:    a014        ..      ADR      r0,{pc}+0x54 ; 0x11e0
        0x0000118e:    6921        !i      LDR      r1,[r4,#0x10]
        0x00001190:    f7fffe0c    ....    BL       __0printf$5 ; 0xdac
        0x00001194:    a015        ..      ADR      r0,{pc}+0x58 ; 0x11ec
        0x00001196:    6961        ai      LDR      r1,[r4,#0x14]
        0x00001198:    f7fffe08    ....    BL       __0printf$5 ; 0xdac
        0x0000119c:    a016        ..      ADR      r0,{pc}+0x5c ; 0x11f8
        0x0000119e:    69a1        .i      LDR      r1,[r4,#0x18]
        0x000011a0:    f7fffe04    ....    BL       __0printf$5 ; 0xdac
        0x000011a4:    a017        ..      ADR      r0,{pc}+0x60 ; 0x1204
        0x000011a6:    69e1        .i      LDR      r1,[r4,#0x1c]
        0x000011a8:    f7fffe00    ....    BL       __0printf$5 ; 0xdac
        0x000011ac:    bd10        ..      POP      {r4,pc}
    $d
        0x000011ae:    0000        ..      DCW    0
        0x000011b0:    20203072    r0      DCD    538980466
        0x000011b4:    7830203d    = 0x    DCD    2016419901
        0x000011b8:    000a7825    %x..    DCD    686117
        0x000011bc:    20203172    r1      DCD    538980722
        0x000011c0:    7830203d    = 0x    DCD    2016419901
        0x000011c4:    000a7825    %x..    DCD    686117
        0x000011c8:    20203272    r2      DCD    538980978
        0x000011cc:    7830203d    = 0x    DCD    2016419901
        0x000011d0:    000a7825    %x..    DCD    686117
        0x000011d4:    20203372    r3      DCD    538981234
        0x000011d8:    7830203d    = 0x    DCD    2016419901
        0x000011dc:    000a7825    %x..    DCD    686117
        0x000011e0:    20323172    r12     DCD    540160370
        0x000011e4:    7830203d    = 0x    DCD    2016419901
        0x000011e8:    000a7825    %x..    DCD    686117
        0x000011ec:    2020726c    lr      DCD    538997356
        0x000011f0:    7830203d    = 0x    DCD    2016419901
        0x000011f4:    000a7825    %x..    DCD    686117
        0x000011f8:    20206370    pc      DCD    538993520
        0x000011fc:    7830203d    = 0x    DCD    2016419901
        0x00001200:    000a7825    %x..    DCD    686117
        0x00001204:    20727370    psr     DCD    544371568
        0x00001208:    7830203d    = 0x    DCD    2016419901
        0x0000120c:    000a7825    %x..    DCD    686117
    $d.realdata
    .constdata
    gau32ClkSrcTbl
        0x00001210:    01e84800    .H..    DCD    32000000
        0x00001214:    00008000    ....    DCD    32768
        0x00001218:    05b8d800    ....    DCD    96000000
        0x0000121c:    00009600    ....    DCD    38400
        0x00001220:    02dc6c00    .l..    DCD    48000000
        0x00001224:    00000000    ....    DCD    0
        0x00001228:    00000000    ....    DCD    0
        0x0000122c:    02dc6c00    .l..    DCD    48000000
    .constdata
        0x00001230:    00000000    ....    DCD    0
        0x00001234:    00000004    ....    DCD    4
        0x00001238:    00000008    ....    DCD    8
        0x0000123c:    0000000c    ....    DCD    12
        0x00001240:    00000000    ....    DCD    0
        0x00001244:    00000000    ....    DCD    0
        0x00001248:    00000000    ....    DCD    0
        0x0000124c:    00000010    ....    DCD    16
        0x00001250:    00000000    ....    DCD    0
        0x00001254:    00000004    ....    DCD    4
        0x00001258:    00000008    ....    DCD    8
        0x0000125c:    00000000    ....    DCD    0
        0x00001260:    00000004    ....    DCD    4
        0x00001264:    00000008    ....    DCD    8
    .constdata
        0x00001268:    01e84800    .H..    DCD    32000000
        0x0000126c:    00000000    ....    DCD    0
        0x00001270:    00008000    ....    DCD    32768
        0x00001274:    02dc6c00    .l..    DCD    48000000
        0x00001278:    00000000    ....    DCD    0
        0x0000127c:    00009600    ....    DCD    38400
        0x00001280:    01e84800    .H..    DCD    32000000
        0x00001284:    00000000    ....    DCD    0
        0x00001288:    00008000    ....    DCD    32768
        0x0000128c:    02dc6c00    .l..    DCD    48000000
        0x00001290:    00000000    ....    DCD    0
        0x00001294:    00009600    ....    DCD    38400
        0x00001298:    01e84800    .H..    DCD    32000000
        0x0000129c:    00000000    ....    DCD    0
        0x000012a0:    00008000    ....    DCD    32768
        0x000012a4:    02dc6c00    .l..    DCD    48000000
        0x000012a8:    00000000    ....    DCD    0
        0x000012ac:    00009600    ....    DCD    38400
    Region$$Table$$Base
        0x000012b0:    000012d0    ....    DCD    4816
        0x000012b4:    20000000    ...     DCD    536870912
        0x000012b8:    0000002c    ,...    DCD    44
        0x000012bc:    00000dcc    ....    DCD    3532
        0x000012c0:    000012fc    ....    DCD    4860
        0x000012c4:    2000002c    ,..     DCD    536870956
        0x000012c8:    00000404    ....    DCD    1028
        0x000012cc:    00000ddc    ....    DCD    3548
    Region$$Table$$Limit

** Section #2 'ER_RW' (SHT_PROGBITS) [SHF_ALLOC + SHF_WRITE]
    Size   : 44 bytes (alignment 4)
    Address: 0x20000000


** Section #3 'ER_ZI' (SHT_NOBITS) [SHF_ALLOC + SHF_WRITE]
    Size   : 1028 bytes (alignment 8)
    Address: 0x2000002c


** Section #4 '.debug_abbrev' (SHT_PROGBITS)
    Size   : 1476 bytes


** Section #5 '.debug_frame' (SHT_PROGBITS)
    Size   : 1708 bytes


** Section #6 '.debug_info' (SHT_PROGBITS)
    Size   : 23660 bytes


** Section #7 '.debug_line' (SHT_PROGBITS)
    Size   : 9640 bytes


** Section #8 '.debug_loc' (SHT_PROGBITS)
    Size   : 3108 bytes


** Section #9 '.debug_macinfo' (SHT_PROGBITS)
    Size   : 112484 bytes


** Section #10 '.debug_pubnames' (SHT_PROGBITS)
    Size   : 1659 bytes


** Section #11 '.symtab' (SHT_SYMTAB)
    Size   : 6032 bytes (alignment 4)
    String table #12 '.strtab'
    Last local symbol no. 226


** Section #12 '.strtab' (SHT_STRTAB)
    Size   : 4792 bytes


** Section #13 '.note' (SHT_NOTE)
    Size   : 28 bytes (alignment 4)


** Section #14 '.comment' (SHT_PROGBITS)
    Size   : 13144 bytes


** Section #15 '.shstrtab' (SHT_STRTAB)
    Size   : 156 bytes


